ARM GAS  C:\Users\NICHOL~2\AppData\Local\Temp\ccYots5l.s 			page 1


   1              		.cpu cortex-m4
   2              		.arch armv7e-m
   3              		.fpu fpv4-sp-d16
   4              		.eabi_attribute 27, 1
   5              		.eabi_attribute 28, 1
   6              		.eabi_attribute 20, 1
   7              		.eabi_attribute 21, 1
   8              		.eabi_attribute 23, 3
   9              		.eabi_attribute 24, 1
  10              		.eabi_attribute 25, 1
  11              		.eabi_attribute 26, 1
  12              		.eabi_attribute 30, 1
  13              		.eabi_attribute 34, 1
  14              		.eabi_attribute 18, 4
  15              		.file	"stm32f3xx_hal_dma.c"
  16              		.text
  17              	.Ltext0:
  18              		.cfi_sections	.debug_frame
  19              		.section	.text.DMA_SetConfig,"ax",%progbits
  20              		.align	1
  21              		.syntax unified
  22              		.thumb
  23              		.thumb_func
  25              	DMA_SetConfig:
  26              	.LVL0:
  27              	.LFB142:
  28              		.file 1 "Drivers/STM32F3xx_HAL_Driver/Src/stm32f3xx_hal_dma.c"
   1:Drivers/STM32F3xx_HAL_Driver/Src/stm32f3xx_hal_dma.c **** /**
   2:Drivers/STM32F3xx_HAL_Driver/Src/stm32f3xx_hal_dma.c ****   ******************************************************************************
   3:Drivers/STM32F3xx_HAL_Driver/Src/stm32f3xx_hal_dma.c ****   * @file    stm32f3xx_hal_dma.c
   4:Drivers/STM32F3xx_HAL_Driver/Src/stm32f3xx_hal_dma.c ****   * @author  MCD Application Team
   5:Drivers/STM32F3xx_HAL_Driver/Src/stm32f3xx_hal_dma.c ****   * @brief   DMA HAL module driver.
   6:Drivers/STM32F3xx_HAL_Driver/Src/stm32f3xx_hal_dma.c ****   *    
   7:Drivers/STM32F3xx_HAL_Driver/Src/stm32f3xx_hal_dma.c ****   *         This file provides firmware functions to manage the following 
   8:Drivers/STM32F3xx_HAL_Driver/Src/stm32f3xx_hal_dma.c ****   *         functionalities of the Direct Memory Access (DMA) peripheral:
   9:Drivers/STM32F3xx_HAL_Driver/Src/stm32f3xx_hal_dma.c ****   *           + Initialization and de-initialization functions
  10:Drivers/STM32F3xx_HAL_Driver/Src/stm32f3xx_hal_dma.c ****   *           + IO operation functions
  11:Drivers/STM32F3xx_HAL_Driver/Src/stm32f3xx_hal_dma.c ****   *           + Peripheral State and errors functions
  12:Drivers/STM32F3xx_HAL_Driver/Src/stm32f3xx_hal_dma.c ****   @verbatim     
  13:Drivers/STM32F3xx_HAL_Driver/Src/stm32f3xx_hal_dma.c ****   ==============================================================================      
  14:Drivers/STM32F3xx_HAL_Driver/Src/stm32f3xx_hal_dma.c ****                         ##### How to use this driver #####
  15:Drivers/STM32F3xx_HAL_Driver/Src/stm32f3xx_hal_dma.c ****   ============================================================================== 
  16:Drivers/STM32F3xx_HAL_Driver/Src/stm32f3xx_hal_dma.c ****   [..]
  17:Drivers/STM32F3xx_HAL_Driver/Src/stm32f3xx_hal_dma.c ****    (#) Enable and configure the peripheral to be connected to the DMA Channel
  18:Drivers/STM32F3xx_HAL_Driver/Src/stm32f3xx_hal_dma.c ****        (except for internal SRAM / FLASH memories: no initialization is 
  19:Drivers/STM32F3xx_HAL_Driver/Src/stm32f3xx_hal_dma.c ****        necessary). Please refer to Reference manual for connection between peripherals
  20:Drivers/STM32F3xx_HAL_Driver/Src/stm32f3xx_hal_dma.c ****        and DMA requests .
  21:Drivers/STM32F3xx_HAL_Driver/Src/stm32f3xx_hal_dma.c **** 
  22:Drivers/STM32F3xx_HAL_Driver/Src/stm32f3xx_hal_dma.c ****    (#) For a given Channel, program the required configuration through the following parameters:   
  23:Drivers/STM32F3xx_HAL_Driver/Src/stm32f3xx_hal_dma.c ****        Transfer Direction, Source and Destination data formats, 
  24:Drivers/STM32F3xx_HAL_Driver/Src/stm32f3xx_hal_dma.c ****        Circular or Normal mode, Channel Priority level, Source and Destination Increment mode, 
  25:Drivers/STM32F3xx_HAL_Driver/Src/stm32f3xx_hal_dma.c ****        using HAL_DMA_Init() function.
  26:Drivers/STM32F3xx_HAL_Driver/Src/stm32f3xx_hal_dma.c **** 
  27:Drivers/STM32F3xx_HAL_Driver/Src/stm32f3xx_hal_dma.c ****    (#) Use HAL_DMA_GetState() function to return the DMA state and HAL_DMA_GetError() in case of er
  28:Drivers/STM32F3xx_HAL_Driver/Src/stm32f3xx_hal_dma.c ****        detection.
  29:Drivers/STM32F3xx_HAL_Driver/Src/stm32f3xx_hal_dma.c ****                     
  30:Drivers/STM32F3xx_HAL_Driver/Src/stm32f3xx_hal_dma.c ****    (#) Use HAL_DMA_Abort() function to abort the current transfer
ARM GAS  C:\Users\NICHOL~2\AppData\Local\Temp\ccYots5l.s 			page 2


  31:Drivers/STM32F3xx_HAL_Driver/Src/stm32f3xx_hal_dma.c ****                    
  32:Drivers/STM32F3xx_HAL_Driver/Src/stm32f3xx_hal_dma.c ****      -@-   In Memory-to-Memory transfer mode, Circular mode is not allowed.
  33:Drivers/STM32F3xx_HAL_Driver/Src/stm32f3xx_hal_dma.c ****      *** Polling mode IO operation ***
  34:Drivers/STM32F3xx_HAL_Driver/Src/stm32f3xx_hal_dma.c ****      =================================   
  35:Drivers/STM32F3xx_HAL_Driver/Src/stm32f3xx_hal_dma.c ****     [..] 
  36:Drivers/STM32F3xx_HAL_Driver/Src/stm32f3xx_hal_dma.c ****       (+) Use HAL_DMA_Start() to start DMA transfer after the configuration of Source 
  37:Drivers/STM32F3xx_HAL_Driver/Src/stm32f3xx_hal_dma.c ****           address and destination address and the Length of data to be transferred
  38:Drivers/STM32F3xx_HAL_Driver/Src/stm32f3xx_hal_dma.c ****       (+) Use HAL_DMA_PollForTransfer() to poll for the end of current transfer, in this  
  39:Drivers/STM32F3xx_HAL_Driver/Src/stm32f3xx_hal_dma.c ****           case a fixed Timeout can be configured by User depending from his application.
  40:Drivers/STM32F3xx_HAL_Driver/Src/stm32f3xx_hal_dma.c **** 
  41:Drivers/STM32F3xx_HAL_Driver/Src/stm32f3xx_hal_dma.c ****      *** Interrupt mode IO operation ***    
  42:Drivers/STM32F3xx_HAL_Driver/Src/stm32f3xx_hal_dma.c ****      =================================== 
  43:Drivers/STM32F3xx_HAL_Driver/Src/stm32f3xx_hal_dma.c ****     [..]
  44:Drivers/STM32F3xx_HAL_Driver/Src/stm32f3xx_hal_dma.c ****       (+) Configure the DMA interrupt priority using HAL_NVIC_SetPriority()
  45:Drivers/STM32F3xx_HAL_Driver/Src/stm32f3xx_hal_dma.c ****       (+) Enable the DMA IRQ handler using HAL_NVIC_EnableIRQ() 
  46:Drivers/STM32F3xx_HAL_Driver/Src/stm32f3xx_hal_dma.c ****       (+) Use HAL_DMA_Start_IT() to start DMA transfer after the configuration of  
  47:Drivers/STM32F3xx_HAL_Driver/Src/stm32f3xx_hal_dma.c ****           Source address and destination address and the Length of data to be transferred. 
  48:Drivers/STM32F3xx_HAL_Driver/Src/stm32f3xx_hal_dma.c ****           In this case the DMA interrupt is configured 
  49:Drivers/STM32F3xx_HAL_Driver/Src/stm32f3xx_hal_dma.c ****       (+) Use HAL_DMA_Channel_IRQHandler() called under DMA_IRQHandler() Interrupt subroutine
  50:Drivers/STM32F3xx_HAL_Driver/Src/stm32f3xx_hal_dma.c ****       (+) At the end of data transfer HAL_DMA_IRQHandler() function is executed and user can 
  51:Drivers/STM32F3xx_HAL_Driver/Src/stm32f3xx_hal_dma.c ****           add his own function by customization of function pointer XferCpltCallback and 
  52:Drivers/STM32F3xx_HAL_Driver/Src/stm32f3xx_hal_dma.c ****           XferErrorCallback (i.e a member of DMA handle structure). 
  53:Drivers/STM32F3xx_HAL_Driver/Src/stm32f3xx_hal_dma.c **** 
  54:Drivers/STM32F3xx_HAL_Driver/Src/stm32f3xx_hal_dma.c ****      *** DMA HAL driver macros list ***
  55:Drivers/STM32F3xx_HAL_Driver/Src/stm32f3xx_hal_dma.c ****      ============================================= 
  56:Drivers/STM32F3xx_HAL_Driver/Src/stm32f3xx_hal_dma.c ****      [..]
  57:Drivers/STM32F3xx_HAL_Driver/Src/stm32f3xx_hal_dma.c ****        Below the list of most used macros in DMA HAL driver.
  58:Drivers/STM32F3xx_HAL_Driver/Src/stm32f3xx_hal_dma.c **** 
  59:Drivers/STM32F3xx_HAL_Driver/Src/stm32f3xx_hal_dma.c ****      [..] 
  60:Drivers/STM32F3xx_HAL_Driver/Src/stm32f3xx_hal_dma.c ****       (@) You can refer to the DMA HAL driver header file for more useful macros  
  61:Drivers/STM32F3xx_HAL_Driver/Src/stm32f3xx_hal_dma.c **** 
  62:Drivers/STM32F3xx_HAL_Driver/Src/stm32f3xx_hal_dma.c ****   @endverbatim
  63:Drivers/STM32F3xx_HAL_Driver/Src/stm32f3xx_hal_dma.c ****   ******************************************************************************
  64:Drivers/STM32F3xx_HAL_Driver/Src/stm32f3xx_hal_dma.c ****   * @attention
  65:Drivers/STM32F3xx_HAL_Driver/Src/stm32f3xx_hal_dma.c ****   *
  66:Drivers/STM32F3xx_HAL_Driver/Src/stm32f3xx_hal_dma.c ****   * Copyright (c) 2016 STMicroelectronics.
  67:Drivers/STM32F3xx_HAL_Driver/Src/stm32f3xx_hal_dma.c ****   * All rights reserved.
  68:Drivers/STM32F3xx_HAL_Driver/Src/stm32f3xx_hal_dma.c ****   *
  69:Drivers/STM32F3xx_HAL_Driver/Src/stm32f3xx_hal_dma.c ****   * This software is licensed under terms that can be found in the LICENSE file in
  70:Drivers/STM32F3xx_HAL_Driver/Src/stm32f3xx_hal_dma.c ****   * the root directory of this software component.
  71:Drivers/STM32F3xx_HAL_Driver/Src/stm32f3xx_hal_dma.c ****   * If no LICENSE file comes with this software, it is provided AS-IS.
  72:Drivers/STM32F3xx_HAL_Driver/Src/stm32f3xx_hal_dma.c ****   *
  73:Drivers/STM32F3xx_HAL_Driver/Src/stm32f3xx_hal_dma.c ****   ******************************************************************************
  74:Drivers/STM32F3xx_HAL_Driver/Src/stm32f3xx_hal_dma.c ****   */ 
  75:Drivers/STM32F3xx_HAL_Driver/Src/stm32f3xx_hal_dma.c **** 
  76:Drivers/STM32F3xx_HAL_Driver/Src/stm32f3xx_hal_dma.c **** /* Includes ------------------------------------------------------------------*/
  77:Drivers/STM32F3xx_HAL_Driver/Src/stm32f3xx_hal_dma.c **** #include "stm32f3xx_hal.h"
  78:Drivers/STM32F3xx_HAL_Driver/Src/stm32f3xx_hal_dma.c **** 
  79:Drivers/STM32F3xx_HAL_Driver/Src/stm32f3xx_hal_dma.c **** /** @addtogroup STM32F3xx_HAL_Driver
  80:Drivers/STM32F3xx_HAL_Driver/Src/stm32f3xx_hal_dma.c ****   * @{
  81:Drivers/STM32F3xx_HAL_Driver/Src/stm32f3xx_hal_dma.c ****   */
  82:Drivers/STM32F3xx_HAL_Driver/Src/stm32f3xx_hal_dma.c **** 
  83:Drivers/STM32F3xx_HAL_Driver/Src/stm32f3xx_hal_dma.c **** /** @defgroup DMA DMA
  84:Drivers/STM32F3xx_HAL_Driver/Src/stm32f3xx_hal_dma.c ****   * @brief DMA HAL module driver
  85:Drivers/STM32F3xx_HAL_Driver/Src/stm32f3xx_hal_dma.c ****   * @{
  86:Drivers/STM32F3xx_HAL_Driver/Src/stm32f3xx_hal_dma.c ****   */
  87:Drivers/STM32F3xx_HAL_Driver/Src/stm32f3xx_hal_dma.c **** 
ARM GAS  C:\Users\NICHOL~2\AppData\Local\Temp\ccYots5l.s 			page 3


  88:Drivers/STM32F3xx_HAL_Driver/Src/stm32f3xx_hal_dma.c **** #ifdef HAL_DMA_MODULE_ENABLED
  89:Drivers/STM32F3xx_HAL_Driver/Src/stm32f3xx_hal_dma.c **** 
  90:Drivers/STM32F3xx_HAL_Driver/Src/stm32f3xx_hal_dma.c **** /* Private typedef -----------------------------------------------------------*/
  91:Drivers/STM32F3xx_HAL_Driver/Src/stm32f3xx_hal_dma.c **** /* Private define ------------------------------------------------------------*/
  92:Drivers/STM32F3xx_HAL_Driver/Src/stm32f3xx_hal_dma.c **** /* Private macro -------------------------------------------------------------*/
  93:Drivers/STM32F3xx_HAL_Driver/Src/stm32f3xx_hal_dma.c **** /* Private variables ---------------------------------------------------------*/
  94:Drivers/STM32F3xx_HAL_Driver/Src/stm32f3xx_hal_dma.c **** /* Private function prototypes -----------------------------------------------*/
  95:Drivers/STM32F3xx_HAL_Driver/Src/stm32f3xx_hal_dma.c **** /** @defgroup DMA_Private_Functions DMA Private Functions
  96:Drivers/STM32F3xx_HAL_Driver/Src/stm32f3xx_hal_dma.c ****   * @{
  97:Drivers/STM32F3xx_HAL_Driver/Src/stm32f3xx_hal_dma.c ****   */
  98:Drivers/STM32F3xx_HAL_Driver/Src/stm32f3xx_hal_dma.c **** static void DMA_SetConfig(DMA_HandleTypeDef *hdma, uint32_t SrcAddress, uint32_t DstAddress, uint32
  99:Drivers/STM32F3xx_HAL_Driver/Src/stm32f3xx_hal_dma.c **** static void DMA_CalcBaseAndBitshift(DMA_HandleTypeDef *hdma);
 100:Drivers/STM32F3xx_HAL_Driver/Src/stm32f3xx_hal_dma.c **** /**
 101:Drivers/STM32F3xx_HAL_Driver/Src/stm32f3xx_hal_dma.c ****   * @}
 102:Drivers/STM32F3xx_HAL_Driver/Src/stm32f3xx_hal_dma.c ****   */
 103:Drivers/STM32F3xx_HAL_Driver/Src/stm32f3xx_hal_dma.c **** 
 104:Drivers/STM32F3xx_HAL_Driver/Src/stm32f3xx_hal_dma.c **** /* Exported functions ---------------------------------------------------------*/
 105:Drivers/STM32F3xx_HAL_Driver/Src/stm32f3xx_hal_dma.c **** 
 106:Drivers/STM32F3xx_HAL_Driver/Src/stm32f3xx_hal_dma.c **** /** @defgroup DMA_Exported_Functions DMA Exported Functions
 107:Drivers/STM32F3xx_HAL_Driver/Src/stm32f3xx_hal_dma.c ****   * @{
 108:Drivers/STM32F3xx_HAL_Driver/Src/stm32f3xx_hal_dma.c ****   */
 109:Drivers/STM32F3xx_HAL_Driver/Src/stm32f3xx_hal_dma.c **** 
 110:Drivers/STM32F3xx_HAL_Driver/Src/stm32f3xx_hal_dma.c **** /** @defgroup DMA_Exported_Functions_Group1 Initialization and de-initialization functions
 111:Drivers/STM32F3xx_HAL_Driver/Src/stm32f3xx_hal_dma.c ****  *  @brief   Initialization and de-initialization functions 
 112:Drivers/STM32F3xx_HAL_Driver/Src/stm32f3xx_hal_dma.c ****  *
 113:Drivers/STM32F3xx_HAL_Driver/Src/stm32f3xx_hal_dma.c **** @verbatim   
 114:Drivers/STM32F3xx_HAL_Driver/Src/stm32f3xx_hal_dma.c ****  ===============================================================================
 115:Drivers/STM32F3xx_HAL_Driver/Src/stm32f3xx_hal_dma.c ****              ##### Initialization and de-initialization functions  #####
 116:Drivers/STM32F3xx_HAL_Driver/Src/stm32f3xx_hal_dma.c ****  ===============================================================================  
 117:Drivers/STM32F3xx_HAL_Driver/Src/stm32f3xx_hal_dma.c ****     [..]
 118:Drivers/STM32F3xx_HAL_Driver/Src/stm32f3xx_hal_dma.c ****     This section provides functions allowing to initialize the DMA Channel source
 119:Drivers/STM32F3xx_HAL_Driver/Src/stm32f3xx_hal_dma.c ****     and destination addresses, incrementation and data sizes, transfer direction, 
 120:Drivers/STM32F3xx_HAL_Driver/Src/stm32f3xx_hal_dma.c ****     circular/normal mode selection, memory-to-memory mode selection and Channel priority value.
 121:Drivers/STM32F3xx_HAL_Driver/Src/stm32f3xx_hal_dma.c ****     [..]
 122:Drivers/STM32F3xx_HAL_Driver/Src/stm32f3xx_hal_dma.c ****     The HAL_DMA_Init() function follows the DMA configuration procedures as described in
 123:Drivers/STM32F3xx_HAL_Driver/Src/stm32f3xx_hal_dma.c ****     reference manual.  
 124:Drivers/STM32F3xx_HAL_Driver/Src/stm32f3xx_hal_dma.c **** 
 125:Drivers/STM32F3xx_HAL_Driver/Src/stm32f3xx_hal_dma.c **** @endverbatim
 126:Drivers/STM32F3xx_HAL_Driver/Src/stm32f3xx_hal_dma.c ****   * @{
 127:Drivers/STM32F3xx_HAL_Driver/Src/stm32f3xx_hal_dma.c ****   */
 128:Drivers/STM32F3xx_HAL_Driver/Src/stm32f3xx_hal_dma.c ****   
 129:Drivers/STM32F3xx_HAL_Driver/Src/stm32f3xx_hal_dma.c **** /**
 130:Drivers/STM32F3xx_HAL_Driver/Src/stm32f3xx_hal_dma.c ****   * @brief  Initialize the DMA according to the specified
 131:Drivers/STM32F3xx_HAL_Driver/Src/stm32f3xx_hal_dma.c ****   *         parameters in the DMA_InitTypeDef and initialize the associated handle.
 132:Drivers/STM32F3xx_HAL_Driver/Src/stm32f3xx_hal_dma.c ****   * @param  hdma Pointer to a DMA_HandleTypeDef structure that contains
 133:Drivers/STM32F3xx_HAL_Driver/Src/stm32f3xx_hal_dma.c ****   *               the configuration information for the specified DMA Channel.  
 134:Drivers/STM32F3xx_HAL_Driver/Src/stm32f3xx_hal_dma.c ****   * @retval HAL status
 135:Drivers/STM32F3xx_HAL_Driver/Src/stm32f3xx_hal_dma.c ****   */
 136:Drivers/STM32F3xx_HAL_Driver/Src/stm32f3xx_hal_dma.c **** HAL_StatusTypeDef HAL_DMA_Init(DMA_HandleTypeDef *hdma)
 137:Drivers/STM32F3xx_HAL_Driver/Src/stm32f3xx_hal_dma.c **** { 
 138:Drivers/STM32F3xx_HAL_Driver/Src/stm32f3xx_hal_dma.c ****   uint32_t tmp = 0U;
 139:Drivers/STM32F3xx_HAL_Driver/Src/stm32f3xx_hal_dma.c ****   
 140:Drivers/STM32F3xx_HAL_Driver/Src/stm32f3xx_hal_dma.c ****   /* Check the DMA handle allocation */
 141:Drivers/STM32F3xx_HAL_Driver/Src/stm32f3xx_hal_dma.c ****   if(NULL == hdma)
 142:Drivers/STM32F3xx_HAL_Driver/Src/stm32f3xx_hal_dma.c ****   {
 143:Drivers/STM32F3xx_HAL_Driver/Src/stm32f3xx_hal_dma.c ****     return HAL_ERROR;
 144:Drivers/STM32F3xx_HAL_Driver/Src/stm32f3xx_hal_dma.c ****   }
ARM GAS  C:\Users\NICHOL~2\AppData\Local\Temp\ccYots5l.s 			page 4


 145:Drivers/STM32F3xx_HAL_Driver/Src/stm32f3xx_hal_dma.c ****   
 146:Drivers/STM32F3xx_HAL_Driver/Src/stm32f3xx_hal_dma.c ****   /* Check the parameters */
 147:Drivers/STM32F3xx_HAL_Driver/Src/stm32f3xx_hal_dma.c ****   assert_param(IS_DMA_ALL_INSTANCE(hdma->Instance));
 148:Drivers/STM32F3xx_HAL_Driver/Src/stm32f3xx_hal_dma.c ****   assert_param(IS_DMA_DIRECTION(hdma->Init.Direction));
 149:Drivers/STM32F3xx_HAL_Driver/Src/stm32f3xx_hal_dma.c ****   assert_param(IS_DMA_PERIPHERAL_INC_STATE(hdma->Init.PeriphInc));
 150:Drivers/STM32F3xx_HAL_Driver/Src/stm32f3xx_hal_dma.c ****   assert_param(IS_DMA_MEMORY_INC_STATE(hdma->Init.MemInc));
 151:Drivers/STM32F3xx_HAL_Driver/Src/stm32f3xx_hal_dma.c ****   assert_param(IS_DMA_PERIPHERAL_DATA_SIZE(hdma->Init.PeriphDataAlignment));
 152:Drivers/STM32F3xx_HAL_Driver/Src/stm32f3xx_hal_dma.c ****   assert_param(IS_DMA_MEMORY_DATA_SIZE(hdma->Init.MemDataAlignment));
 153:Drivers/STM32F3xx_HAL_Driver/Src/stm32f3xx_hal_dma.c ****   assert_param(IS_DMA_MODE(hdma->Init.Mode));
 154:Drivers/STM32F3xx_HAL_Driver/Src/stm32f3xx_hal_dma.c ****   assert_param(IS_DMA_PRIORITY(hdma->Init.Priority));
 155:Drivers/STM32F3xx_HAL_Driver/Src/stm32f3xx_hal_dma.c ****   
 156:Drivers/STM32F3xx_HAL_Driver/Src/stm32f3xx_hal_dma.c ****   /* Change DMA peripheral state */
 157:Drivers/STM32F3xx_HAL_Driver/Src/stm32f3xx_hal_dma.c ****   hdma->State = HAL_DMA_STATE_BUSY;
 158:Drivers/STM32F3xx_HAL_Driver/Src/stm32f3xx_hal_dma.c **** 
 159:Drivers/STM32F3xx_HAL_Driver/Src/stm32f3xx_hal_dma.c ****   /* Get the CR register value */
 160:Drivers/STM32F3xx_HAL_Driver/Src/stm32f3xx_hal_dma.c ****   tmp = hdma->Instance->CCR;
 161:Drivers/STM32F3xx_HAL_Driver/Src/stm32f3xx_hal_dma.c ****   
 162:Drivers/STM32F3xx_HAL_Driver/Src/stm32f3xx_hal_dma.c ****   /* Clear PL, MSIZE, PSIZE, MINC, PINC, CIRC, DIR bits */
 163:Drivers/STM32F3xx_HAL_Driver/Src/stm32f3xx_hal_dma.c ****   tmp &= ((uint32_t)~(DMA_CCR_PL    | DMA_CCR_MSIZE  | DMA_CCR_PSIZE  | \
 164:Drivers/STM32F3xx_HAL_Driver/Src/stm32f3xx_hal_dma.c ****                       DMA_CCR_MINC  | DMA_CCR_PINC   | DMA_CCR_CIRC   | \
 165:Drivers/STM32F3xx_HAL_Driver/Src/stm32f3xx_hal_dma.c ****                       DMA_CCR_DIR));
 166:Drivers/STM32F3xx_HAL_Driver/Src/stm32f3xx_hal_dma.c ****   
 167:Drivers/STM32F3xx_HAL_Driver/Src/stm32f3xx_hal_dma.c ****   /* Prepare the DMA Channel configuration */
 168:Drivers/STM32F3xx_HAL_Driver/Src/stm32f3xx_hal_dma.c ****   tmp |=  hdma->Init.Direction        |
 169:Drivers/STM32F3xx_HAL_Driver/Src/stm32f3xx_hal_dma.c ****           hdma->Init.PeriphInc           | hdma->Init.MemInc           |
 170:Drivers/STM32F3xx_HAL_Driver/Src/stm32f3xx_hal_dma.c ****           hdma->Init.PeriphDataAlignment | hdma->Init.MemDataAlignment |
 171:Drivers/STM32F3xx_HAL_Driver/Src/stm32f3xx_hal_dma.c ****           hdma->Init.Mode                | hdma->Init.Priority;
 172:Drivers/STM32F3xx_HAL_Driver/Src/stm32f3xx_hal_dma.c **** 
 173:Drivers/STM32F3xx_HAL_Driver/Src/stm32f3xx_hal_dma.c ****   /* Write to DMA Channel CR register */
 174:Drivers/STM32F3xx_HAL_Driver/Src/stm32f3xx_hal_dma.c ****   hdma->Instance->CCR = tmp;  
 175:Drivers/STM32F3xx_HAL_Driver/Src/stm32f3xx_hal_dma.c ****   
 176:Drivers/STM32F3xx_HAL_Driver/Src/stm32f3xx_hal_dma.c ****   /* Initialize DmaBaseAddress and ChannelIndex parameters used 
 177:Drivers/STM32F3xx_HAL_Driver/Src/stm32f3xx_hal_dma.c ****      by HAL_DMA_IRQHandler() and HAL_DMA_PollForTransfer() */
 178:Drivers/STM32F3xx_HAL_Driver/Src/stm32f3xx_hal_dma.c ****   DMA_CalcBaseAndBitshift(hdma);
 179:Drivers/STM32F3xx_HAL_Driver/Src/stm32f3xx_hal_dma.c ****   
 180:Drivers/STM32F3xx_HAL_Driver/Src/stm32f3xx_hal_dma.c ****   /* Initialise the error code */
 181:Drivers/STM32F3xx_HAL_Driver/Src/stm32f3xx_hal_dma.c ****   hdma->ErrorCode = HAL_DMA_ERROR_NONE;
 182:Drivers/STM32F3xx_HAL_Driver/Src/stm32f3xx_hal_dma.c **** 
 183:Drivers/STM32F3xx_HAL_Driver/Src/stm32f3xx_hal_dma.c ****   /* Initialize the DMA state*/
 184:Drivers/STM32F3xx_HAL_Driver/Src/stm32f3xx_hal_dma.c ****   hdma->State = HAL_DMA_STATE_READY;
 185:Drivers/STM32F3xx_HAL_Driver/Src/stm32f3xx_hal_dma.c ****   
 186:Drivers/STM32F3xx_HAL_Driver/Src/stm32f3xx_hal_dma.c ****   /* Allocate lock resource and initialize it */
 187:Drivers/STM32F3xx_HAL_Driver/Src/stm32f3xx_hal_dma.c ****   hdma->Lock = HAL_UNLOCKED;
 188:Drivers/STM32F3xx_HAL_Driver/Src/stm32f3xx_hal_dma.c ****   
 189:Drivers/STM32F3xx_HAL_Driver/Src/stm32f3xx_hal_dma.c ****   return HAL_OK;
 190:Drivers/STM32F3xx_HAL_Driver/Src/stm32f3xx_hal_dma.c **** }  
 191:Drivers/STM32F3xx_HAL_Driver/Src/stm32f3xx_hal_dma.c ****   
 192:Drivers/STM32F3xx_HAL_Driver/Src/stm32f3xx_hal_dma.c **** /**
 193:Drivers/STM32F3xx_HAL_Driver/Src/stm32f3xx_hal_dma.c ****   * @brief  DeInitialize the DMA peripheral 
 194:Drivers/STM32F3xx_HAL_Driver/Src/stm32f3xx_hal_dma.c ****   * @param  hdma pointer to a DMA_HandleTypeDef structure that contains
 195:Drivers/STM32F3xx_HAL_Driver/Src/stm32f3xx_hal_dma.c ****   *               the configuration information for the specified DMA Channel.  
 196:Drivers/STM32F3xx_HAL_Driver/Src/stm32f3xx_hal_dma.c ****   * @retval HAL status
 197:Drivers/STM32F3xx_HAL_Driver/Src/stm32f3xx_hal_dma.c ****   */
 198:Drivers/STM32F3xx_HAL_Driver/Src/stm32f3xx_hal_dma.c **** HAL_StatusTypeDef HAL_DMA_DeInit(DMA_HandleTypeDef *hdma)
 199:Drivers/STM32F3xx_HAL_Driver/Src/stm32f3xx_hal_dma.c **** {
 200:Drivers/STM32F3xx_HAL_Driver/Src/stm32f3xx_hal_dma.c ****   /* Check the DMA handle allocation */
 201:Drivers/STM32F3xx_HAL_Driver/Src/stm32f3xx_hal_dma.c ****   if(NULL == hdma)
ARM GAS  C:\Users\NICHOL~2\AppData\Local\Temp\ccYots5l.s 			page 5


 202:Drivers/STM32F3xx_HAL_Driver/Src/stm32f3xx_hal_dma.c ****   {
 203:Drivers/STM32F3xx_HAL_Driver/Src/stm32f3xx_hal_dma.c ****     return HAL_ERROR;
 204:Drivers/STM32F3xx_HAL_Driver/Src/stm32f3xx_hal_dma.c ****   }
 205:Drivers/STM32F3xx_HAL_Driver/Src/stm32f3xx_hal_dma.c ****   
 206:Drivers/STM32F3xx_HAL_Driver/Src/stm32f3xx_hal_dma.c ****   /* Check the parameters */
 207:Drivers/STM32F3xx_HAL_Driver/Src/stm32f3xx_hal_dma.c ****   assert_param(IS_DMA_ALL_INSTANCE(hdma->Instance));
 208:Drivers/STM32F3xx_HAL_Driver/Src/stm32f3xx_hal_dma.c **** 
 209:Drivers/STM32F3xx_HAL_Driver/Src/stm32f3xx_hal_dma.c ****   /* Disable the selected DMA Channelx */
 210:Drivers/STM32F3xx_HAL_Driver/Src/stm32f3xx_hal_dma.c ****   hdma->Instance->CCR &= ~DMA_CCR_EN;
 211:Drivers/STM32F3xx_HAL_Driver/Src/stm32f3xx_hal_dma.c **** 
 212:Drivers/STM32F3xx_HAL_Driver/Src/stm32f3xx_hal_dma.c ****   /* Reset DMA Channel control register */
 213:Drivers/STM32F3xx_HAL_Driver/Src/stm32f3xx_hal_dma.c ****   hdma->Instance->CCR  = 0U;
 214:Drivers/STM32F3xx_HAL_Driver/Src/stm32f3xx_hal_dma.c **** 
 215:Drivers/STM32F3xx_HAL_Driver/Src/stm32f3xx_hal_dma.c ****   /* Reset DMA Channel Number of Data to Transfer register */
 216:Drivers/STM32F3xx_HAL_Driver/Src/stm32f3xx_hal_dma.c ****   hdma->Instance->CNDTR = 0U;
 217:Drivers/STM32F3xx_HAL_Driver/Src/stm32f3xx_hal_dma.c **** 
 218:Drivers/STM32F3xx_HAL_Driver/Src/stm32f3xx_hal_dma.c ****   /* Reset DMA Channel peripheral address register */
 219:Drivers/STM32F3xx_HAL_Driver/Src/stm32f3xx_hal_dma.c ****   hdma->Instance->CPAR  = 0U;
 220:Drivers/STM32F3xx_HAL_Driver/Src/stm32f3xx_hal_dma.c ****   
 221:Drivers/STM32F3xx_HAL_Driver/Src/stm32f3xx_hal_dma.c ****   /* Reset DMA Channel memory address register */
 222:Drivers/STM32F3xx_HAL_Driver/Src/stm32f3xx_hal_dma.c ****   hdma->Instance->CMAR = 0U;
 223:Drivers/STM32F3xx_HAL_Driver/Src/stm32f3xx_hal_dma.c **** 
 224:Drivers/STM32F3xx_HAL_Driver/Src/stm32f3xx_hal_dma.c ****   /* Get DMA Base Address */  
 225:Drivers/STM32F3xx_HAL_Driver/Src/stm32f3xx_hal_dma.c ****   DMA_CalcBaseAndBitshift(hdma);
 226:Drivers/STM32F3xx_HAL_Driver/Src/stm32f3xx_hal_dma.c **** 
 227:Drivers/STM32F3xx_HAL_Driver/Src/stm32f3xx_hal_dma.c ****   /* Clear all flags */
 228:Drivers/STM32F3xx_HAL_Driver/Src/stm32f3xx_hal_dma.c ****   hdma->DmaBaseAddress->IFCR = DMA_FLAG_GL1 << hdma->ChannelIndex;
 229:Drivers/STM32F3xx_HAL_Driver/Src/stm32f3xx_hal_dma.c **** 
 230:Drivers/STM32F3xx_HAL_Driver/Src/stm32f3xx_hal_dma.c ****   /* Clean callbacks */
 231:Drivers/STM32F3xx_HAL_Driver/Src/stm32f3xx_hal_dma.c ****   hdma->XferCpltCallback = NULL;
 232:Drivers/STM32F3xx_HAL_Driver/Src/stm32f3xx_hal_dma.c ****   hdma->XferHalfCpltCallback = NULL;
 233:Drivers/STM32F3xx_HAL_Driver/Src/stm32f3xx_hal_dma.c ****   hdma->XferErrorCallback = NULL;
 234:Drivers/STM32F3xx_HAL_Driver/Src/stm32f3xx_hal_dma.c ****   hdma->XferAbortCallback = NULL;
 235:Drivers/STM32F3xx_HAL_Driver/Src/stm32f3xx_hal_dma.c **** 
 236:Drivers/STM32F3xx_HAL_Driver/Src/stm32f3xx_hal_dma.c ****   /* Reset the error code */
 237:Drivers/STM32F3xx_HAL_Driver/Src/stm32f3xx_hal_dma.c ****   hdma->ErrorCode = HAL_DMA_ERROR_NONE;
 238:Drivers/STM32F3xx_HAL_Driver/Src/stm32f3xx_hal_dma.c **** 
 239:Drivers/STM32F3xx_HAL_Driver/Src/stm32f3xx_hal_dma.c ****   /* Reset the DMA state */
 240:Drivers/STM32F3xx_HAL_Driver/Src/stm32f3xx_hal_dma.c ****   hdma->State = HAL_DMA_STATE_RESET;
 241:Drivers/STM32F3xx_HAL_Driver/Src/stm32f3xx_hal_dma.c **** 
 242:Drivers/STM32F3xx_HAL_Driver/Src/stm32f3xx_hal_dma.c ****   /* Release Lock */
 243:Drivers/STM32F3xx_HAL_Driver/Src/stm32f3xx_hal_dma.c ****   __HAL_UNLOCK(hdma);
 244:Drivers/STM32F3xx_HAL_Driver/Src/stm32f3xx_hal_dma.c **** 
 245:Drivers/STM32F3xx_HAL_Driver/Src/stm32f3xx_hal_dma.c ****   return HAL_OK;
 246:Drivers/STM32F3xx_HAL_Driver/Src/stm32f3xx_hal_dma.c **** }
 247:Drivers/STM32F3xx_HAL_Driver/Src/stm32f3xx_hal_dma.c **** 
 248:Drivers/STM32F3xx_HAL_Driver/Src/stm32f3xx_hal_dma.c **** /**
 249:Drivers/STM32F3xx_HAL_Driver/Src/stm32f3xx_hal_dma.c ****   * @}
 250:Drivers/STM32F3xx_HAL_Driver/Src/stm32f3xx_hal_dma.c ****   */
 251:Drivers/STM32F3xx_HAL_Driver/Src/stm32f3xx_hal_dma.c **** 
 252:Drivers/STM32F3xx_HAL_Driver/Src/stm32f3xx_hal_dma.c **** /** @defgroup DMA_Exported_Functions_Group2 Input and Output operation functions 
 253:Drivers/STM32F3xx_HAL_Driver/Src/stm32f3xx_hal_dma.c ****  *  @brief   I/O operation functions  
 254:Drivers/STM32F3xx_HAL_Driver/Src/stm32f3xx_hal_dma.c ****  *
 255:Drivers/STM32F3xx_HAL_Driver/Src/stm32f3xx_hal_dma.c **** @verbatim   
 256:Drivers/STM32F3xx_HAL_Driver/Src/stm32f3xx_hal_dma.c ****  ===============================================================================
 257:Drivers/STM32F3xx_HAL_Driver/Src/stm32f3xx_hal_dma.c ****                       #####  IO operation functions  #####
 258:Drivers/STM32F3xx_HAL_Driver/Src/stm32f3xx_hal_dma.c ****  ===============================================================================  
ARM GAS  C:\Users\NICHOL~2\AppData\Local\Temp\ccYots5l.s 			page 6


 259:Drivers/STM32F3xx_HAL_Driver/Src/stm32f3xx_hal_dma.c ****     [..]  This section provides functions allowing to:
 260:Drivers/STM32F3xx_HAL_Driver/Src/stm32f3xx_hal_dma.c ****       (+) Configure the source, destination address and data length and Start DMA transfer
 261:Drivers/STM32F3xx_HAL_Driver/Src/stm32f3xx_hal_dma.c ****       (+) Configure the source, destination address and data length and 
 262:Drivers/STM32F3xx_HAL_Driver/Src/stm32f3xx_hal_dma.c ****           Start DMA transfer with interrupt
 263:Drivers/STM32F3xx_HAL_Driver/Src/stm32f3xx_hal_dma.c ****       (+) Abort DMA transfer
 264:Drivers/STM32F3xx_HAL_Driver/Src/stm32f3xx_hal_dma.c ****       (+) Poll for transfer complete
 265:Drivers/STM32F3xx_HAL_Driver/Src/stm32f3xx_hal_dma.c ****       (+) Handle DMA interrupt request  
 266:Drivers/STM32F3xx_HAL_Driver/Src/stm32f3xx_hal_dma.c **** 
 267:Drivers/STM32F3xx_HAL_Driver/Src/stm32f3xx_hal_dma.c **** @endverbatim
 268:Drivers/STM32F3xx_HAL_Driver/Src/stm32f3xx_hal_dma.c ****   * @{
 269:Drivers/STM32F3xx_HAL_Driver/Src/stm32f3xx_hal_dma.c ****   */
 270:Drivers/STM32F3xx_HAL_Driver/Src/stm32f3xx_hal_dma.c **** 
 271:Drivers/STM32F3xx_HAL_Driver/Src/stm32f3xx_hal_dma.c **** /**
 272:Drivers/STM32F3xx_HAL_Driver/Src/stm32f3xx_hal_dma.c ****   * @brief  Start the DMA Transfer.
 273:Drivers/STM32F3xx_HAL_Driver/Src/stm32f3xx_hal_dma.c ****   * @param  hdma      : pointer to a DMA_HandleTypeDef structure that contains
 274:Drivers/STM32F3xx_HAL_Driver/Src/stm32f3xx_hal_dma.c ****   *                     the configuration information for the specified DMA Channel.  
 275:Drivers/STM32F3xx_HAL_Driver/Src/stm32f3xx_hal_dma.c ****   * @param  SrcAddress The source memory Buffer address
 276:Drivers/STM32F3xx_HAL_Driver/Src/stm32f3xx_hal_dma.c ****   * @param  DstAddress The destination memory Buffer address
 277:Drivers/STM32F3xx_HAL_Driver/Src/stm32f3xx_hal_dma.c ****   * @param  DataLength The length of data to be transferred from source to destination
 278:Drivers/STM32F3xx_HAL_Driver/Src/stm32f3xx_hal_dma.c ****   * @retval HAL status
 279:Drivers/STM32F3xx_HAL_Driver/Src/stm32f3xx_hal_dma.c ****   */
 280:Drivers/STM32F3xx_HAL_Driver/Src/stm32f3xx_hal_dma.c **** HAL_StatusTypeDef HAL_DMA_Start(DMA_HandleTypeDef *hdma, uint32_t SrcAddress, uint32_t DstAddress, 
 281:Drivers/STM32F3xx_HAL_Driver/Src/stm32f3xx_hal_dma.c **** {
 282:Drivers/STM32F3xx_HAL_Driver/Src/stm32f3xx_hal_dma.c **** 	HAL_StatusTypeDef status = HAL_OK;
 283:Drivers/STM32F3xx_HAL_Driver/Src/stm32f3xx_hal_dma.c **** 
 284:Drivers/STM32F3xx_HAL_Driver/Src/stm32f3xx_hal_dma.c ****   /* Check the parameters */
 285:Drivers/STM32F3xx_HAL_Driver/Src/stm32f3xx_hal_dma.c ****   assert_param(IS_DMA_BUFFER_SIZE(DataLength));
 286:Drivers/STM32F3xx_HAL_Driver/Src/stm32f3xx_hal_dma.c ****   
 287:Drivers/STM32F3xx_HAL_Driver/Src/stm32f3xx_hal_dma.c ****   /* Process locked */
 288:Drivers/STM32F3xx_HAL_Driver/Src/stm32f3xx_hal_dma.c ****   __HAL_LOCK(hdma);
 289:Drivers/STM32F3xx_HAL_Driver/Src/stm32f3xx_hal_dma.c ****   
 290:Drivers/STM32F3xx_HAL_Driver/Src/stm32f3xx_hal_dma.c ****   if(HAL_DMA_STATE_READY == hdma->State)
 291:Drivers/STM32F3xx_HAL_Driver/Src/stm32f3xx_hal_dma.c ****   {
 292:Drivers/STM32F3xx_HAL_Driver/Src/stm32f3xx_hal_dma.c ****   	/* Change DMA peripheral state */  
 293:Drivers/STM32F3xx_HAL_Driver/Src/stm32f3xx_hal_dma.c ****   	hdma->State = HAL_DMA_STATE_BUSY;
 294:Drivers/STM32F3xx_HAL_Driver/Src/stm32f3xx_hal_dma.c ****   	
 295:Drivers/STM32F3xx_HAL_Driver/Src/stm32f3xx_hal_dma.c ****   	hdma->ErrorCode = HAL_DMA_ERROR_NONE;
 296:Drivers/STM32F3xx_HAL_Driver/Src/stm32f3xx_hal_dma.c ****   	
 297:Drivers/STM32F3xx_HAL_Driver/Src/stm32f3xx_hal_dma.c ****   	/* Disable the peripheral */
 298:Drivers/STM32F3xx_HAL_Driver/Src/stm32f3xx_hal_dma.c ****   	hdma->Instance->CCR &= ~DMA_CCR_EN;  
 299:Drivers/STM32F3xx_HAL_Driver/Src/stm32f3xx_hal_dma.c ****   	
 300:Drivers/STM32F3xx_HAL_Driver/Src/stm32f3xx_hal_dma.c ****   	/* Configure the source, destination address and the data length */
 301:Drivers/STM32F3xx_HAL_Driver/Src/stm32f3xx_hal_dma.c ****   	DMA_SetConfig(hdma, SrcAddress, DstAddress, DataLength);
 302:Drivers/STM32F3xx_HAL_Driver/Src/stm32f3xx_hal_dma.c ****   	
 303:Drivers/STM32F3xx_HAL_Driver/Src/stm32f3xx_hal_dma.c ****   	/* Enable the Peripheral */
 304:Drivers/STM32F3xx_HAL_Driver/Src/stm32f3xx_hal_dma.c ****   	hdma->Instance->CCR |= DMA_CCR_EN;  
 305:Drivers/STM32F3xx_HAL_Driver/Src/stm32f3xx_hal_dma.c ****   }
 306:Drivers/STM32F3xx_HAL_Driver/Src/stm32f3xx_hal_dma.c ****   else
 307:Drivers/STM32F3xx_HAL_Driver/Src/stm32f3xx_hal_dma.c ****   {
 308:Drivers/STM32F3xx_HAL_Driver/Src/stm32f3xx_hal_dma.c ****   	/* Process Unlocked */
 309:Drivers/STM32F3xx_HAL_Driver/Src/stm32f3xx_hal_dma.c ****   	__HAL_UNLOCK(hdma);
 310:Drivers/STM32F3xx_HAL_Driver/Src/stm32f3xx_hal_dma.c ****   	
 311:Drivers/STM32F3xx_HAL_Driver/Src/stm32f3xx_hal_dma.c ****   	/* Remain BUSY */
 312:Drivers/STM32F3xx_HAL_Driver/Src/stm32f3xx_hal_dma.c ****   	status = HAL_BUSY;
 313:Drivers/STM32F3xx_HAL_Driver/Src/stm32f3xx_hal_dma.c ****   }  
 314:Drivers/STM32F3xx_HAL_Driver/Src/stm32f3xx_hal_dma.c **** 
 315:Drivers/STM32F3xx_HAL_Driver/Src/stm32f3xx_hal_dma.c ****   return status; 
ARM GAS  C:\Users\NICHOL~2\AppData\Local\Temp\ccYots5l.s 			page 7


 316:Drivers/STM32F3xx_HAL_Driver/Src/stm32f3xx_hal_dma.c **** } 
 317:Drivers/STM32F3xx_HAL_Driver/Src/stm32f3xx_hal_dma.c **** 
 318:Drivers/STM32F3xx_HAL_Driver/Src/stm32f3xx_hal_dma.c **** /**
 319:Drivers/STM32F3xx_HAL_Driver/Src/stm32f3xx_hal_dma.c ****   * @brief  Start the DMA Transfer with interrupt enabled.
 320:Drivers/STM32F3xx_HAL_Driver/Src/stm32f3xx_hal_dma.c ****   * @param  hdma       pointer to a DMA_HandleTypeDef structure that contains
 321:Drivers/STM32F3xx_HAL_Driver/Src/stm32f3xx_hal_dma.c ****   *                     the configuration information for the specified DMA Channel.  
 322:Drivers/STM32F3xx_HAL_Driver/Src/stm32f3xx_hal_dma.c ****   * @param  SrcAddress The source memory Buffer address
 323:Drivers/STM32F3xx_HAL_Driver/Src/stm32f3xx_hal_dma.c ****   * @param  DstAddress The destination memory Buffer address
 324:Drivers/STM32F3xx_HAL_Driver/Src/stm32f3xx_hal_dma.c ****   * @param  DataLength The length of data to be transferred from source to destination
 325:Drivers/STM32F3xx_HAL_Driver/Src/stm32f3xx_hal_dma.c ****   * @retval HAL status
 326:Drivers/STM32F3xx_HAL_Driver/Src/stm32f3xx_hal_dma.c ****   */
 327:Drivers/STM32F3xx_HAL_Driver/Src/stm32f3xx_hal_dma.c **** HAL_StatusTypeDef HAL_DMA_Start_IT(DMA_HandleTypeDef *hdma, uint32_t SrcAddress, uint32_t DstAddres
 328:Drivers/STM32F3xx_HAL_Driver/Src/stm32f3xx_hal_dma.c **** {
 329:Drivers/STM32F3xx_HAL_Driver/Src/stm32f3xx_hal_dma.c **** 	HAL_StatusTypeDef status = HAL_OK;
 330:Drivers/STM32F3xx_HAL_Driver/Src/stm32f3xx_hal_dma.c **** 
 331:Drivers/STM32F3xx_HAL_Driver/Src/stm32f3xx_hal_dma.c ****   /* Check the parameters */
 332:Drivers/STM32F3xx_HAL_Driver/Src/stm32f3xx_hal_dma.c ****   assert_param(IS_DMA_BUFFER_SIZE(DataLength));
 333:Drivers/STM32F3xx_HAL_Driver/Src/stm32f3xx_hal_dma.c ****   
 334:Drivers/STM32F3xx_HAL_Driver/Src/stm32f3xx_hal_dma.c ****   /* Process locked */
 335:Drivers/STM32F3xx_HAL_Driver/Src/stm32f3xx_hal_dma.c ****   __HAL_LOCK(hdma);
 336:Drivers/STM32F3xx_HAL_Driver/Src/stm32f3xx_hal_dma.c ****   
 337:Drivers/STM32F3xx_HAL_Driver/Src/stm32f3xx_hal_dma.c ****   if(HAL_DMA_STATE_READY == hdma->State)
 338:Drivers/STM32F3xx_HAL_Driver/Src/stm32f3xx_hal_dma.c ****   {
 339:Drivers/STM32F3xx_HAL_Driver/Src/stm32f3xx_hal_dma.c ****   	/* Change DMA peripheral state */  
 340:Drivers/STM32F3xx_HAL_Driver/Src/stm32f3xx_hal_dma.c ****   	hdma->State = HAL_DMA_STATE_BUSY;
 341:Drivers/STM32F3xx_HAL_Driver/Src/stm32f3xx_hal_dma.c ****   	
 342:Drivers/STM32F3xx_HAL_Driver/Src/stm32f3xx_hal_dma.c ****   	hdma->ErrorCode = HAL_DMA_ERROR_NONE;
 343:Drivers/STM32F3xx_HAL_Driver/Src/stm32f3xx_hal_dma.c ****   	
 344:Drivers/STM32F3xx_HAL_Driver/Src/stm32f3xx_hal_dma.c ****   	/* Disable the peripheral */
 345:Drivers/STM32F3xx_HAL_Driver/Src/stm32f3xx_hal_dma.c ****   	hdma->Instance->CCR &= ~DMA_CCR_EN;
 346:Drivers/STM32F3xx_HAL_Driver/Src/stm32f3xx_hal_dma.c ****   	
 347:Drivers/STM32F3xx_HAL_Driver/Src/stm32f3xx_hal_dma.c ****   	/* Configure the source, destination address and the data length */  
 348:Drivers/STM32F3xx_HAL_Driver/Src/stm32f3xx_hal_dma.c ****   	DMA_SetConfig(hdma, SrcAddress, DstAddress, DataLength);
 349:Drivers/STM32F3xx_HAL_Driver/Src/stm32f3xx_hal_dma.c ****   	
 350:Drivers/STM32F3xx_HAL_Driver/Src/stm32f3xx_hal_dma.c ****   	/* Enable the transfer complete, & transfer error interrupts */
 351:Drivers/STM32F3xx_HAL_Driver/Src/stm32f3xx_hal_dma.c ****   	/* Half transfer interrupt is optional: enable it only if associated callback is available */
 352:Drivers/STM32F3xx_HAL_Driver/Src/stm32f3xx_hal_dma.c ****     if(NULL != hdma->XferHalfCpltCallback )
 353:Drivers/STM32F3xx_HAL_Driver/Src/stm32f3xx_hal_dma.c ****     {
 354:Drivers/STM32F3xx_HAL_Driver/Src/stm32f3xx_hal_dma.c ****       hdma->Instance->CCR |= (DMA_IT_TC | DMA_IT_HT | DMA_IT_TE);
 355:Drivers/STM32F3xx_HAL_Driver/Src/stm32f3xx_hal_dma.c ****     }
 356:Drivers/STM32F3xx_HAL_Driver/Src/stm32f3xx_hal_dma.c ****   	else
 357:Drivers/STM32F3xx_HAL_Driver/Src/stm32f3xx_hal_dma.c ****   	{
 358:Drivers/STM32F3xx_HAL_Driver/Src/stm32f3xx_hal_dma.c ****   		hdma->Instance->CCR |= (DMA_IT_TC | DMA_IT_TE);
 359:Drivers/STM32F3xx_HAL_Driver/Src/stm32f3xx_hal_dma.c ****   		hdma->Instance->CCR &= ~DMA_IT_HT;
 360:Drivers/STM32F3xx_HAL_Driver/Src/stm32f3xx_hal_dma.c ****   	}
 361:Drivers/STM32F3xx_HAL_Driver/Src/stm32f3xx_hal_dma.c ****   	
 362:Drivers/STM32F3xx_HAL_Driver/Src/stm32f3xx_hal_dma.c ****   	/* Enable the Peripheral */
 363:Drivers/STM32F3xx_HAL_Driver/Src/stm32f3xx_hal_dma.c ****   	hdma->Instance->CCR |= DMA_CCR_EN;
 364:Drivers/STM32F3xx_HAL_Driver/Src/stm32f3xx_hal_dma.c ****   }
 365:Drivers/STM32F3xx_HAL_Driver/Src/stm32f3xx_hal_dma.c ****   else
 366:Drivers/STM32F3xx_HAL_Driver/Src/stm32f3xx_hal_dma.c ****   {
 367:Drivers/STM32F3xx_HAL_Driver/Src/stm32f3xx_hal_dma.c ****   	/* Process Unlocked */
 368:Drivers/STM32F3xx_HAL_Driver/Src/stm32f3xx_hal_dma.c ****     __HAL_UNLOCK(hdma); 
 369:Drivers/STM32F3xx_HAL_Driver/Src/stm32f3xx_hal_dma.c ****   
 370:Drivers/STM32F3xx_HAL_Driver/Src/stm32f3xx_hal_dma.c ****     /* Remain BUSY */
 371:Drivers/STM32F3xx_HAL_Driver/Src/stm32f3xx_hal_dma.c ****     status = HAL_BUSY;
 372:Drivers/STM32F3xx_HAL_Driver/Src/stm32f3xx_hal_dma.c ****   }     
ARM GAS  C:\Users\NICHOL~2\AppData\Local\Temp\ccYots5l.s 			page 8


 373:Drivers/STM32F3xx_HAL_Driver/Src/stm32f3xx_hal_dma.c ****   
 374:Drivers/STM32F3xx_HAL_Driver/Src/stm32f3xx_hal_dma.c ****   return status;    
 375:Drivers/STM32F3xx_HAL_Driver/Src/stm32f3xx_hal_dma.c **** } 
 376:Drivers/STM32F3xx_HAL_Driver/Src/stm32f3xx_hal_dma.c **** 
 377:Drivers/STM32F3xx_HAL_Driver/Src/stm32f3xx_hal_dma.c **** /**
 378:Drivers/STM32F3xx_HAL_Driver/Src/stm32f3xx_hal_dma.c ****   * @brief  Abort the DMA Transfer.
 379:Drivers/STM32F3xx_HAL_Driver/Src/stm32f3xx_hal_dma.c ****   * @param  hdma  : pointer to a DMA_HandleTypeDef structure that contains
 380:Drivers/STM32F3xx_HAL_Driver/Src/stm32f3xx_hal_dma.c ****   *                 the configuration information for the specified DMA Channel.
 381:Drivers/STM32F3xx_HAL_Driver/Src/stm32f3xx_hal_dma.c ****   * @retval HAL status
 382:Drivers/STM32F3xx_HAL_Driver/Src/stm32f3xx_hal_dma.c ****   */
 383:Drivers/STM32F3xx_HAL_Driver/Src/stm32f3xx_hal_dma.c **** HAL_StatusTypeDef HAL_DMA_Abort(DMA_HandleTypeDef *hdma)
 384:Drivers/STM32F3xx_HAL_Driver/Src/stm32f3xx_hal_dma.c **** {
 385:Drivers/STM32F3xx_HAL_Driver/Src/stm32f3xx_hal_dma.c ****   if(hdma->State != HAL_DMA_STATE_BUSY)
 386:Drivers/STM32F3xx_HAL_Driver/Src/stm32f3xx_hal_dma.c ****   {
 387:Drivers/STM32F3xx_HAL_Driver/Src/stm32f3xx_hal_dma.c ****     /* no transfer ongoing */
 388:Drivers/STM32F3xx_HAL_Driver/Src/stm32f3xx_hal_dma.c ****     hdma->ErrorCode = HAL_DMA_ERROR_NO_XFER;
 389:Drivers/STM32F3xx_HAL_Driver/Src/stm32f3xx_hal_dma.c ****     
 390:Drivers/STM32F3xx_HAL_Driver/Src/stm32f3xx_hal_dma.c ****     /* Process Unlocked */
 391:Drivers/STM32F3xx_HAL_Driver/Src/stm32f3xx_hal_dma.c ****     __HAL_UNLOCK(hdma);
 392:Drivers/STM32F3xx_HAL_Driver/Src/stm32f3xx_hal_dma.c ****     
 393:Drivers/STM32F3xx_HAL_Driver/Src/stm32f3xx_hal_dma.c ****     return HAL_ERROR;
 394:Drivers/STM32F3xx_HAL_Driver/Src/stm32f3xx_hal_dma.c ****   }
 395:Drivers/STM32F3xx_HAL_Driver/Src/stm32f3xx_hal_dma.c ****   else
 396:Drivers/STM32F3xx_HAL_Driver/Src/stm32f3xx_hal_dma.c ****   {
 397:Drivers/STM32F3xx_HAL_Driver/Src/stm32f3xx_hal_dma.c ****     /* Disable DMA IT */
 398:Drivers/STM32F3xx_HAL_Driver/Src/stm32f3xx_hal_dma.c ****      hdma->Instance->CCR &= ~(DMA_IT_TC | DMA_IT_HT | DMA_IT_TE);
 399:Drivers/STM32F3xx_HAL_Driver/Src/stm32f3xx_hal_dma.c ****     
 400:Drivers/STM32F3xx_HAL_Driver/Src/stm32f3xx_hal_dma.c ****     /* Disable the channel */
 401:Drivers/STM32F3xx_HAL_Driver/Src/stm32f3xx_hal_dma.c ****     hdma->Instance->CCR &= ~DMA_CCR_EN;
 402:Drivers/STM32F3xx_HAL_Driver/Src/stm32f3xx_hal_dma.c ****     
 403:Drivers/STM32F3xx_HAL_Driver/Src/stm32f3xx_hal_dma.c ****     /* Clear all flags */
 404:Drivers/STM32F3xx_HAL_Driver/Src/stm32f3xx_hal_dma.c ****     hdma->DmaBaseAddress->IFCR = (DMA_FLAG_GL1 << hdma->ChannelIndex);
 405:Drivers/STM32F3xx_HAL_Driver/Src/stm32f3xx_hal_dma.c ****   }
 406:Drivers/STM32F3xx_HAL_Driver/Src/stm32f3xx_hal_dma.c ****   /* Change the DMA state*/
 407:Drivers/STM32F3xx_HAL_Driver/Src/stm32f3xx_hal_dma.c ****   hdma->State = HAL_DMA_STATE_READY; 
 408:Drivers/STM32F3xx_HAL_Driver/Src/stm32f3xx_hal_dma.c ****   
 409:Drivers/STM32F3xx_HAL_Driver/Src/stm32f3xx_hal_dma.c ****   /* Process Unlocked */
 410:Drivers/STM32F3xx_HAL_Driver/Src/stm32f3xx_hal_dma.c ****   __HAL_UNLOCK(hdma);
 411:Drivers/STM32F3xx_HAL_Driver/Src/stm32f3xx_hal_dma.c ****   
 412:Drivers/STM32F3xx_HAL_Driver/Src/stm32f3xx_hal_dma.c ****   return HAL_OK;
 413:Drivers/STM32F3xx_HAL_Driver/Src/stm32f3xx_hal_dma.c **** }
 414:Drivers/STM32F3xx_HAL_Driver/Src/stm32f3xx_hal_dma.c **** 
 415:Drivers/STM32F3xx_HAL_Driver/Src/stm32f3xx_hal_dma.c **** /**
 416:Drivers/STM32F3xx_HAL_Driver/Src/stm32f3xx_hal_dma.c ****   * @brief  Abort the DMA Transfer in Interrupt mode.
 417:Drivers/STM32F3xx_HAL_Driver/Src/stm32f3xx_hal_dma.c ****   * @param  hdma  : pointer to a DMA_HandleTypeDef structure that contains
 418:Drivers/STM32F3xx_HAL_Driver/Src/stm32f3xx_hal_dma.c ****   *                 the configuration information for the specified DMA Stream.
 419:Drivers/STM32F3xx_HAL_Driver/Src/stm32f3xx_hal_dma.c ****   * @retval HAL status
 420:Drivers/STM32F3xx_HAL_Driver/Src/stm32f3xx_hal_dma.c ****   */
 421:Drivers/STM32F3xx_HAL_Driver/Src/stm32f3xx_hal_dma.c **** HAL_StatusTypeDef HAL_DMA_Abort_IT(DMA_HandleTypeDef *hdma)
 422:Drivers/STM32F3xx_HAL_Driver/Src/stm32f3xx_hal_dma.c **** {  
 423:Drivers/STM32F3xx_HAL_Driver/Src/stm32f3xx_hal_dma.c ****   HAL_StatusTypeDef status = HAL_OK;
 424:Drivers/STM32F3xx_HAL_Driver/Src/stm32f3xx_hal_dma.c ****   
 425:Drivers/STM32F3xx_HAL_Driver/Src/stm32f3xx_hal_dma.c ****   if(HAL_DMA_STATE_BUSY != hdma->State)
 426:Drivers/STM32F3xx_HAL_Driver/Src/stm32f3xx_hal_dma.c ****   {
 427:Drivers/STM32F3xx_HAL_Driver/Src/stm32f3xx_hal_dma.c ****     /* no transfer ongoing */
 428:Drivers/STM32F3xx_HAL_Driver/Src/stm32f3xx_hal_dma.c ****     hdma->ErrorCode = HAL_DMA_ERROR_NO_XFER;
 429:Drivers/STM32F3xx_HAL_Driver/Src/stm32f3xx_hal_dma.c ****         
ARM GAS  C:\Users\NICHOL~2\AppData\Local\Temp\ccYots5l.s 			page 9


 430:Drivers/STM32F3xx_HAL_Driver/Src/stm32f3xx_hal_dma.c ****     status = HAL_ERROR;
 431:Drivers/STM32F3xx_HAL_Driver/Src/stm32f3xx_hal_dma.c ****   }
 432:Drivers/STM32F3xx_HAL_Driver/Src/stm32f3xx_hal_dma.c ****   else
 433:Drivers/STM32F3xx_HAL_Driver/Src/stm32f3xx_hal_dma.c ****   { 
 434:Drivers/STM32F3xx_HAL_Driver/Src/stm32f3xx_hal_dma.c ****   
 435:Drivers/STM32F3xx_HAL_Driver/Src/stm32f3xx_hal_dma.c ****     /* Disable DMA IT */
 436:Drivers/STM32F3xx_HAL_Driver/Src/stm32f3xx_hal_dma.c ****     hdma->Instance->CCR &= ~(DMA_IT_TC | DMA_IT_HT | DMA_IT_TE);
 437:Drivers/STM32F3xx_HAL_Driver/Src/stm32f3xx_hal_dma.c ****     
 438:Drivers/STM32F3xx_HAL_Driver/Src/stm32f3xx_hal_dma.c ****     /* Disable the channel */
 439:Drivers/STM32F3xx_HAL_Driver/Src/stm32f3xx_hal_dma.c ****     hdma->Instance->CCR &= ~DMA_CCR_EN;
 440:Drivers/STM32F3xx_HAL_Driver/Src/stm32f3xx_hal_dma.c ****     
 441:Drivers/STM32F3xx_HAL_Driver/Src/stm32f3xx_hal_dma.c ****     /* Clear all flags */
 442:Drivers/STM32F3xx_HAL_Driver/Src/stm32f3xx_hal_dma.c ****     hdma->DmaBaseAddress->IFCR = DMA_FLAG_GL1 << hdma->ChannelIndex;
 443:Drivers/STM32F3xx_HAL_Driver/Src/stm32f3xx_hal_dma.c ****     
 444:Drivers/STM32F3xx_HAL_Driver/Src/stm32f3xx_hal_dma.c ****     /* Change the DMA state */
 445:Drivers/STM32F3xx_HAL_Driver/Src/stm32f3xx_hal_dma.c ****     hdma->State = HAL_DMA_STATE_READY;
 446:Drivers/STM32F3xx_HAL_Driver/Src/stm32f3xx_hal_dma.c ****     
 447:Drivers/STM32F3xx_HAL_Driver/Src/stm32f3xx_hal_dma.c ****     /* Process Unlocked */
 448:Drivers/STM32F3xx_HAL_Driver/Src/stm32f3xx_hal_dma.c ****     __HAL_UNLOCK(hdma);
 449:Drivers/STM32F3xx_HAL_Driver/Src/stm32f3xx_hal_dma.c ****     
 450:Drivers/STM32F3xx_HAL_Driver/Src/stm32f3xx_hal_dma.c ****     /* Call User Abort callback */ 
 451:Drivers/STM32F3xx_HAL_Driver/Src/stm32f3xx_hal_dma.c ****     if(hdma->XferAbortCallback != NULL)
 452:Drivers/STM32F3xx_HAL_Driver/Src/stm32f3xx_hal_dma.c ****     {
 453:Drivers/STM32F3xx_HAL_Driver/Src/stm32f3xx_hal_dma.c ****       hdma->XferAbortCallback(hdma);
 454:Drivers/STM32F3xx_HAL_Driver/Src/stm32f3xx_hal_dma.c ****     } 
 455:Drivers/STM32F3xx_HAL_Driver/Src/stm32f3xx_hal_dma.c ****   }
 456:Drivers/STM32F3xx_HAL_Driver/Src/stm32f3xx_hal_dma.c ****   return status;
 457:Drivers/STM32F3xx_HAL_Driver/Src/stm32f3xx_hal_dma.c **** }
 458:Drivers/STM32F3xx_HAL_Driver/Src/stm32f3xx_hal_dma.c **** 
 459:Drivers/STM32F3xx_HAL_Driver/Src/stm32f3xx_hal_dma.c **** /**
 460:Drivers/STM32F3xx_HAL_Driver/Src/stm32f3xx_hal_dma.c ****   * @brief  Polling for transfer complete.
 461:Drivers/STM32F3xx_HAL_Driver/Src/stm32f3xx_hal_dma.c ****   * @param  hdma    pointer to a DMA_HandleTypeDef structure that contains
 462:Drivers/STM32F3xx_HAL_Driver/Src/stm32f3xx_hal_dma.c ****   *                  the configuration information for the specified DMA Channel.
 463:Drivers/STM32F3xx_HAL_Driver/Src/stm32f3xx_hal_dma.c ****   * @param  CompleteLevel Specifies the DMA level complete.  
 464:Drivers/STM32F3xx_HAL_Driver/Src/stm32f3xx_hal_dma.c ****   * @param  Timeout       Timeout duration.
 465:Drivers/STM32F3xx_HAL_Driver/Src/stm32f3xx_hal_dma.c ****   * @retval HAL status
 466:Drivers/STM32F3xx_HAL_Driver/Src/stm32f3xx_hal_dma.c ****   */
 467:Drivers/STM32F3xx_HAL_Driver/Src/stm32f3xx_hal_dma.c **** HAL_StatusTypeDef HAL_DMA_PollForTransfer(DMA_HandleTypeDef *hdma, uint32_t CompleteLevel, uint32_t
 468:Drivers/STM32F3xx_HAL_Driver/Src/stm32f3xx_hal_dma.c **** {
 469:Drivers/STM32F3xx_HAL_Driver/Src/stm32f3xx_hal_dma.c ****   uint32_t temp;
 470:Drivers/STM32F3xx_HAL_Driver/Src/stm32f3xx_hal_dma.c ****   uint32_t tickstart = 0U;
 471:Drivers/STM32F3xx_HAL_Driver/Src/stm32f3xx_hal_dma.c ****   
 472:Drivers/STM32F3xx_HAL_Driver/Src/stm32f3xx_hal_dma.c ****   if(HAL_DMA_STATE_BUSY != hdma->State)
 473:Drivers/STM32F3xx_HAL_Driver/Src/stm32f3xx_hal_dma.c ****   {
 474:Drivers/STM32F3xx_HAL_Driver/Src/stm32f3xx_hal_dma.c ****     /* no transfer ongoing */
 475:Drivers/STM32F3xx_HAL_Driver/Src/stm32f3xx_hal_dma.c ****     hdma->ErrorCode = HAL_DMA_ERROR_NO_XFER;
 476:Drivers/STM32F3xx_HAL_Driver/Src/stm32f3xx_hal_dma.c ****     __HAL_UNLOCK(hdma);
 477:Drivers/STM32F3xx_HAL_Driver/Src/stm32f3xx_hal_dma.c ****     return HAL_ERROR;
 478:Drivers/STM32F3xx_HAL_Driver/Src/stm32f3xx_hal_dma.c ****   }
 479:Drivers/STM32F3xx_HAL_Driver/Src/stm32f3xx_hal_dma.c ****   
 480:Drivers/STM32F3xx_HAL_Driver/Src/stm32f3xx_hal_dma.c ****   /* Polling mode not supported in circular mode */
 481:Drivers/STM32F3xx_HAL_Driver/Src/stm32f3xx_hal_dma.c ****   if (RESET != (hdma->Instance->CCR & DMA_CCR_CIRC))
 482:Drivers/STM32F3xx_HAL_Driver/Src/stm32f3xx_hal_dma.c ****   {
 483:Drivers/STM32F3xx_HAL_Driver/Src/stm32f3xx_hal_dma.c ****     hdma->ErrorCode = HAL_DMA_ERROR_NOT_SUPPORTED;
 484:Drivers/STM32F3xx_HAL_Driver/Src/stm32f3xx_hal_dma.c ****     return HAL_ERROR;
 485:Drivers/STM32F3xx_HAL_Driver/Src/stm32f3xx_hal_dma.c ****   }
 486:Drivers/STM32F3xx_HAL_Driver/Src/stm32f3xx_hal_dma.c ****   
ARM GAS  C:\Users\NICHOL~2\AppData\Local\Temp\ccYots5l.s 			page 10


 487:Drivers/STM32F3xx_HAL_Driver/Src/stm32f3xx_hal_dma.c ****   /* Get the level transfer complete flag */
 488:Drivers/STM32F3xx_HAL_Driver/Src/stm32f3xx_hal_dma.c ****   if(HAL_DMA_FULL_TRANSFER == CompleteLevel)
 489:Drivers/STM32F3xx_HAL_Driver/Src/stm32f3xx_hal_dma.c ****   {
 490:Drivers/STM32F3xx_HAL_Driver/Src/stm32f3xx_hal_dma.c ****     /* Transfer Complete flag */
 491:Drivers/STM32F3xx_HAL_Driver/Src/stm32f3xx_hal_dma.c ****     temp = DMA_FLAG_TC1 << hdma->ChannelIndex;
 492:Drivers/STM32F3xx_HAL_Driver/Src/stm32f3xx_hal_dma.c ****   }
 493:Drivers/STM32F3xx_HAL_Driver/Src/stm32f3xx_hal_dma.c ****   else
 494:Drivers/STM32F3xx_HAL_Driver/Src/stm32f3xx_hal_dma.c ****   {
 495:Drivers/STM32F3xx_HAL_Driver/Src/stm32f3xx_hal_dma.c ****     /* Half Transfer Complete flag */
 496:Drivers/STM32F3xx_HAL_Driver/Src/stm32f3xx_hal_dma.c ****     temp = DMA_FLAG_HT1 << hdma->ChannelIndex;
 497:Drivers/STM32F3xx_HAL_Driver/Src/stm32f3xx_hal_dma.c ****   }
 498:Drivers/STM32F3xx_HAL_Driver/Src/stm32f3xx_hal_dma.c **** 
 499:Drivers/STM32F3xx_HAL_Driver/Src/stm32f3xx_hal_dma.c ****   /* Get tick */
 500:Drivers/STM32F3xx_HAL_Driver/Src/stm32f3xx_hal_dma.c ****   tickstart = HAL_GetTick();
 501:Drivers/STM32F3xx_HAL_Driver/Src/stm32f3xx_hal_dma.c **** 
 502:Drivers/STM32F3xx_HAL_Driver/Src/stm32f3xx_hal_dma.c ****   while(RESET == (hdma->DmaBaseAddress->ISR & temp))
 503:Drivers/STM32F3xx_HAL_Driver/Src/stm32f3xx_hal_dma.c ****   {
 504:Drivers/STM32F3xx_HAL_Driver/Src/stm32f3xx_hal_dma.c ****     if(RESET != (hdma->DmaBaseAddress->ISR & (DMA_FLAG_TE1 << hdma->ChannelIndex)))
 505:Drivers/STM32F3xx_HAL_Driver/Src/stm32f3xx_hal_dma.c ****     {      
 506:Drivers/STM32F3xx_HAL_Driver/Src/stm32f3xx_hal_dma.c ****       /* When a DMA transfer error occurs */
 507:Drivers/STM32F3xx_HAL_Driver/Src/stm32f3xx_hal_dma.c ****       /* A hardware clear of its EN bits is performed */
 508:Drivers/STM32F3xx_HAL_Driver/Src/stm32f3xx_hal_dma.c ****       /* Clear all flags */
 509:Drivers/STM32F3xx_HAL_Driver/Src/stm32f3xx_hal_dma.c ****       hdma->DmaBaseAddress->IFCR = DMA_FLAG_GL1 << hdma->ChannelIndex;
 510:Drivers/STM32F3xx_HAL_Driver/Src/stm32f3xx_hal_dma.c ****       
 511:Drivers/STM32F3xx_HAL_Driver/Src/stm32f3xx_hal_dma.c ****       /* Update error code */
 512:Drivers/STM32F3xx_HAL_Driver/Src/stm32f3xx_hal_dma.c ****       hdma->ErrorCode = HAL_DMA_ERROR_TE;
 513:Drivers/STM32F3xx_HAL_Driver/Src/stm32f3xx_hal_dma.c **** 
 514:Drivers/STM32F3xx_HAL_Driver/Src/stm32f3xx_hal_dma.c ****       /* Change the DMA state */
 515:Drivers/STM32F3xx_HAL_Driver/Src/stm32f3xx_hal_dma.c ****       hdma->State= HAL_DMA_STATE_READY;       
 516:Drivers/STM32F3xx_HAL_Driver/Src/stm32f3xx_hal_dma.c ****       
 517:Drivers/STM32F3xx_HAL_Driver/Src/stm32f3xx_hal_dma.c ****       /* Process Unlocked */
 518:Drivers/STM32F3xx_HAL_Driver/Src/stm32f3xx_hal_dma.c ****       __HAL_UNLOCK(hdma);
 519:Drivers/STM32F3xx_HAL_Driver/Src/stm32f3xx_hal_dma.c ****       
 520:Drivers/STM32F3xx_HAL_Driver/Src/stm32f3xx_hal_dma.c ****       return HAL_ERROR;      
 521:Drivers/STM32F3xx_HAL_Driver/Src/stm32f3xx_hal_dma.c ****     }      
 522:Drivers/STM32F3xx_HAL_Driver/Src/stm32f3xx_hal_dma.c ****     /* Check for the Timeout */
 523:Drivers/STM32F3xx_HAL_Driver/Src/stm32f3xx_hal_dma.c ****     if(Timeout != HAL_MAX_DELAY)
 524:Drivers/STM32F3xx_HAL_Driver/Src/stm32f3xx_hal_dma.c ****     {
 525:Drivers/STM32F3xx_HAL_Driver/Src/stm32f3xx_hal_dma.c ****       if((Timeout == 0U) || ((HAL_GetTick() - tickstart) > Timeout))
 526:Drivers/STM32F3xx_HAL_Driver/Src/stm32f3xx_hal_dma.c ****       {
 527:Drivers/STM32F3xx_HAL_Driver/Src/stm32f3xx_hal_dma.c ****         /* Update error code */
 528:Drivers/STM32F3xx_HAL_Driver/Src/stm32f3xx_hal_dma.c ****         hdma->ErrorCode = HAL_DMA_ERROR_TIMEOUT;
 529:Drivers/STM32F3xx_HAL_Driver/Src/stm32f3xx_hal_dma.c ****         
 530:Drivers/STM32F3xx_HAL_Driver/Src/stm32f3xx_hal_dma.c ****         /* Change the DMA state */
 531:Drivers/STM32F3xx_HAL_Driver/Src/stm32f3xx_hal_dma.c ****         hdma->State = HAL_DMA_STATE_READY;
 532:Drivers/STM32F3xx_HAL_Driver/Src/stm32f3xx_hal_dma.c **** 
 533:Drivers/STM32F3xx_HAL_Driver/Src/stm32f3xx_hal_dma.c ****         /* Process Unlocked */
 534:Drivers/STM32F3xx_HAL_Driver/Src/stm32f3xx_hal_dma.c ****         __HAL_UNLOCK(hdma);
 535:Drivers/STM32F3xx_HAL_Driver/Src/stm32f3xx_hal_dma.c **** 
 536:Drivers/STM32F3xx_HAL_Driver/Src/stm32f3xx_hal_dma.c ****         return HAL_ERROR;
 537:Drivers/STM32F3xx_HAL_Driver/Src/stm32f3xx_hal_dma.c ****       }
 538:Drivers/STM32F3xx_HAL_Driver/Src/stm32f3xx_hal_dma.c ****     }
 539:Drivers/STM32F3xx_HAL_Driver/Src/stm32f3xx_hal_dma.c ****   }
 540:Drivers/STM32F3xx_HAL_Driver/Src/stm32f3xx_hal_dma.c **** 
 541:Drivers/STM32F3xx_HAL_Driver/Src/stm32f3xx_hal_dma.c ****   if(HAL_DMA_FULL_TRANSFER == CompleteLevel)
 542:Drivers/STM32F3xx_HAL_Driver/Src/stm32f3xx_hal_dma.c ****   {
 543:Drivers/STM32F3xx_HAL_Driver/Src/stm32f3xx_hal_dma.c ****     /* Clear the transfer complete flag */
ARM GAS  C:\Users\NICHOL~2\AppData\Local\Temp\ccYots5l.s 			page 11


 544:Drivers/STM32F3xx_HAL_Driver/Src/stm32f3xx_hal_dma.c ****     hdma->DmaBaseAddress->IFCR = DMA_FLAG_TC1 << hdma->ChannelIndex;
 545:Drivers/STM32F3xx_HAL_Driver/Src/stm32f3xx_hal_dma.c **** 
 546:Drivers/STM32F3xx_HAL_Driver/Src/stm32f3xx_hal_dma.c ****     /* The selected Channelx EN bit is cleared (DMA is disabled and 
 547:Drivers/STM32F3xx_HAL_Driver/Src/stm32f3xx_hal_dma.c ****     all transfers are complete) */
 548:Drivers/STM32F3xx_HAL_Driver/Src/stm32f3xx_hal_dma.c ****     hdma->State = HAL_DMA_STATE_READY;
 549:Drivers/STM32F3xx_HAL_Driver/Src/stm32f3xx_hal_dma.c ****   }
 550:Drivers/STM32F3xx_HAL_Driver/Src/stm32f3xx_hal_dma.c ****   else
 551:Drivers/STM32F3xx_HAL_Driver/Src/stm32f3xx_hal_dma.c ****   { 
 552:Drivers/STM32F3xx_HAL_Driver/Src/stm32f3xx_hal_dma.c ****     /* Clear the half transfer complete flag */
 553:Drivers/STM32F3xx_HAL_Driver/Src/stm32f3xx_hal_dma.c ****     hdma->DmaBaseAddress->IFCR = DMA_FLAG_HT1 << hdma->ChannelIndex;
 554:Drivers/STM32F3xx_HAL_Driver/Src/stm32f3xx_hal_dma.c ****   }
 555:Drivers/STM32F3xx_HAL_Driver/Src/stm32f3xx_hal_dma.c ****   
 556:Drivers/STM32F3xx_HAL_Driver/Src/stm32f3xx_hal_dma.c ****   /* Process unlocked */
 557:Drivers/STM32F3xx_HAL_Driver/Src/stm32f3xx_hal_dma.c ****   __HAL_UNLOCK(hdma);  
 558:Drivers/STM32F3xx_HAL_Driver/Src/stm32f3xx_hal_dma.c **** 
 559:Drivers/STM32F3xx_HAL_Driver/Src/stm32f3xx_hal_dma.c ****   return HAL_OK;
 560:Drivers/STM32F3xx_HAL_Driver/Src/stm32f3xx_hal_dma.c **** }
 561:Drivers/STM32F3xx_HAL_Driver/Src/stm32f3xx_hal_dma.c **** 
 562:Drivers/STM32F3xx_HAL_Driver/Src/stm32f3xx_hal_dma.c **** /**
 563:Drivers/STM32F3xx_HAL_Driver/Src/stm32f3xx_hal_dma.c ****   * @brief  Handle DMA interrupt request.
 564:Drivers/STM32F3xx_HAL_Driver/Src/stm32f3xx_hal_dma.c ****   * @param  hdma pointer to a DMA_HandleTypeDef structure that contains
 565:Drivers/STM32F3xx_HAL_Driver/Src/stm32f3xx_hal_dma.c ****   *               the configuration information for the specified DMA Channel.  
 566:Drivers/STM32F3xx_HAL_Driver/Src/stm32f3xx_hal_dma.c ****   * @retval None
 567:Drivers/STM32F3xx_HAL_Driver/Src/stm32f3xx_hal_dma.c ****   */
 568:Drivers/STM32F3xx_HAL_Driver/Src/stm32f3xx_hal_dma.c **** void HAL_DMA_IRQHandler(DMA_HandleTypeDef *hdma)
 569:Drivers/STM32F3xx_HAL_Driver/Src/stm32f3xx_hal_dma.c **** {
 570:Drivers/STM32F3xx_HAL_Driver/Src/stm32f3xx_hal_dma.c **** 	uint32_t flag_it = hdma->DmaBaseAddress->ISR;
 571:Drivers/STM32F3xx_HAL_Driver/Src/stm32f3xx_hal_dma.c ****   uint32_t source_it = hdma->Instance->CCR;
 572:Drivers/STM32F3xx_HAL_Driver/Src/stm32f3xx_hal_dma.c ****           
 573:Drivers/STM32F3xx_HAL_Driver/Src/stm32f3xx_hal_dma.c ****   /* Half Transfer Complete Interrupt management ******************************/
 574:Drivers/STM32F3xx_HAL_Driver/Src/stm32f3xx_hal_dma.c ****   if ((RESET != (flag_it & (DMA_FLAG_HT1 << hdma->ChannelIndex))) && (RESET != (source_it & DMA_IT_
 575:Drivers/STM32F3xx_HAL_Driver/Src/stm32f3xx_hal_dma.c ****   {
 576:Drivers/STM32F3xx_HAL_Driver/Src/stm32f3xx_hal_dma.c ****   	/* Disable the half transfer interrupt if the DMA mode is not CIRCULAR */
 577:Drivers/STM32F3xx_HAL_Driver/Src/stm32f3xx_hal_dma.c ****   	if((hdma->Instance->CCR & DMA_CCR_CIRC) == 0U)
 578:Drivers/STM32F3xx_HAL_Driver/Src/stm32f3xx_hal_dma.c ****   	{
 579:Drivers/STM32F3xx_HAL_Driver/Src/stm32f3xx_hal_dma.c ****   		/* Disable the half transfer interrupt */
 580:Drivers/STM32F3xx_HAL_Driver/Src/stm32f3xx_hal_dma.c ****   		hdma->Instance->CCR &= ~DMA_IT_HT;
 581:Drivers/STM32F3xx_HAL_Driver/Src/stm32f3xx_hal_dma.c ****   	}
 582:Drivers/STM32F3xx_HAL_Driver/Src/stm32f3xx_hal_dma.c ****   	
 583:Drivers/STM32F3xx_HAL_Driver/Src/stm32f3xx_hal_dma.c ****   	/* Clear the half transfer complete flag */
 584:Drivers/STM32F3xx_HAL_Driver/Src/stm32f3xx_hal_dma.c ****   	hdma->DmaBaseAddress->IFCR = DMA_FLAG_HT1 << hdma->ChannelIndex;
 585:Drivers/STM32F3xx_HAL_Driver/Src/stm32f3xx_hal_dma.c ****   	
 586:Drivers/STM32F3xx_HAL_Driver/Src/stm32f3xx_hal_dma.c ****   	/* DMA peripheral state is not updated in Half Transfer */
 587:Drivers/STM32F3xx_HAL_Driver/Src/stm32f3xx_hal_dma.c ****   	/* State is updated only in Transfer Complete case */
 588:Drivers/STM32F3xx_HAL_Driver/Src/stm32f3xx_hal_dma.c ****   	
 589:Drivers/STM32F3xx_HAL_Driver/Src/stm32f3xx_hal_dma.c ****   	if(hdma->XferHalfCpltCallback != NULL)
 590:Drivers/STM32F3xx_HAL_Driver/Src/stm32f3xx_hal_dma.c ****   	{
 591:Drivers/STM32F3xx_HAL_Driver/Src/stm32f3xx_hal_dma.c ****   		/* Half transfer callback */
 592:Drivers/STM32F3xx_HAL_Driver/Src/stm32f3xx_hal_dma.c ****   		hdma->XferHalfCpltCallback(hdma);
 593:Drivers/STM32F3xx_HAL_Driver/Src/stm32f3xx_hal_dma.c ****   	}
 594:Drivers/STM32F3xx_HAL_Driver/Src/stm32f3xx_hal_dma.c ****   }
 595:Drivers/STM32F3xx_HAL_Driver/Src/stm32f3xx_hal_dma.c ****   
 596:Drivers/STM32F3xx_HAL_Driver/Src/stm32f3xx_hal_dma.c ****   /* Transfer Complete Interrupt management ***********************************/
 597:Drivers/STM32F3xx_HAL_Driver/Src/stm32f3xx_hal_dma.c ****   else if ((RESET != (flag_it & (DMA_FLAG_TC1 << hdma->ChannelIndex))) && (RESET != (source_it & DM
 598:Drivers/STM32F3xx_HAL_Driver/Src/stm32f3xx_hal_dma.c ****   {
 599:Drivers/STM32F3xx_HAL_Driver/Src/stm32f3xx_hal_dma.c ****   	if((hdma->Instance->CCR & DMA_CCR_CIRC) == 0U)
 600:Drivers/STM32F3xx_HAL_Driver/Src/stm32f3xx_hal_dma.c ****   	{
ARM GAS  C:\Users\NICHOL~2\AppData\Local\Temp\ccYots5l.s 			page 12


 601:Drivers/STM32F3xx_HAL_Driver/Src/stm32f3xx_hal_dma.c ****   		/* Disable the transfer complete  & transfer error interrupts */
 602:Drivers/STM32F3xx_HAL_Driver/Src/stm32f3xx_hal_dma.c ****   		/* if the DMA mode is not CIRCULAR */
 603:Drivers/STM32F3xx_HAL_Driver/Src/stm32f3xx_hal_dma.c ****   		hdma->Instance->CCR &= ~(DMA_IT_TC | DMA_IT_TE);
 604:Drivers/STM32F3xx_HAL_Driver/Src/stm32f3xx_hal_dma.c ****   		
 605:Drivers/STM32F3xx_HAL_Driver/Src/stm32f3xx_hal_dma.c ****   		/* Change the DMA state */
 606:Drivers/STM32F3xx_HAL_Driver/Src/stm32f3xx_hal_dma.c ****   		hdma->State = HAL_DMA_STATE_READY;
 607:Drivers/STM32F3xx_HAL_Driver/Src/stm32f3xx_hal_dma.c ****   	}
 608:Drivers/STM32F3xx_HAL_Driver/Src/stm32f3xx_hal_dma.c ****   	
 609:Drivers/STM32F3xx_HAL_Driver/Src/stm32f3xx_hal_dma.c ****   	/* Clear the transfer complete flag */
 610:Drivers/STM32F3xx_HAL_Driver/Src/stm32f3xx_hal_dma.c ****   	hdma->DmaBaseAddress->IFCR = DMA_FLAG_TC1 << hdma->ChannelIndex;
 611:Drivers/STM32F3xx_HAL_Driver/Src/stm32f3xx_hal_dma.c ****   	
 612:Drivers/STM32F3xx_HAL_Driver/Src/stm32f3xx_hal_dma.c ****   	/* Process Unlocked */
 613:Drivers/STM32F3xx_HAL_Driver/Src/stm32f3xx_hal_dma.c ****   	__HAL_UNLOCK(hdma);
 614:Drivers/STM32F3xx_HAL_Driver/Src/stm32f3xx_hal_dma.c ****   	
 615:Drivers/STM32F3xx_HAL_Driver/Src/stm32f3xx_hal_dma.c ****   	if(hdma->XferCpltCallback != NULL)
 616:Drivers/STM32F3xx_HAL_Driver/Src/stm32f3xx_hal_dma.c ****   	{
 617:Drivers/STM32F3xx_HAL_Driver/Src/stm32f3xx_hal_dma.c ****   		/* Transfer complete callback */
 618:Drivers/STM32F3xx_HAL_Driver/Src/stm32f3xx_hal_dma.c ****   		hdma->XferCpltCallback(hdma);
 619:Drivers/STM32F3xx_HAL_Driver/Src/stm32f3xx_hal_dma.c ****   	}
 620:Drivers/STM32F3xx_HAL_Driver/Src/stm32f3xx_hal_dma.c ****   }
 621:Drivers/STM32F3xx_HAL_Driver/Src/stm32f3xx_hal_dma.c ****   
 622:Drivers/STM32F3xx_HAL_Driver/Src/stm32f3xx_hal_dma.c ****   /* Transfer Error Interrupt management ***************************************/
 623:Drivers/STM32F3xx_HAL_Driver/Src/stm32f3xx_hal_dma.c ****   else if (( RESET != (flag_it & (DMA_FLAG_TE1 << hdma->ChannelIndex))) && (RESET != (source_it & D
 624:Drivers/STM32F3xx_HAL_Driver/Src/stm32f3xx_hal_dma.c ****   {
 625:Drivers/STM32F3xx_HAL_Driver/Src/stm32f3xx_hal_dma.c ****   	/* When a DMA transfer error occurs */
 626:Drivers/STM32F3xx_HAL_Driver/Src/stm32f3xx_hal_dma.c ****     /* A hardware clear of its EN bits is performed */
 627:Drivers/STM32F3xx_HAL_Driver/Src/stm32f3xx_hal_dma.c ****     /* Then, disable all DMA interrupts */
 628:Drivers/STM32F3xx_HAL_Driver/Src/stm32f3xx_hal_dma.c ****     hdma->Instance->CCR &= ~(DMA_IT_TC | DMA_IT_HT | DMA_IT_TE);
 629:Drivers/STM32F3xx_HAL_Driver/Src/stm32f3xx_hal_dma.c ****     
 630:Drivers/STM32F3xx_HAL_Driver/Src/stm32f3xx_hal_dma.c ****     /* Clear all flags */
 631:Drivers/STM32F3xx_HAL_Driver/Src/stm32f3xx_hal_dma.c ****     hdma->DmaBaseAddress->IFCR = DMA_FLAG_GL1 << hdma->ChannelIndex;
 632:Drivers/STM32F3xx_HAL_Driver/Src/stm32f3xx_hal_dma.c ****     
 633:Drivers/STM32F3xx_HAL_Driver/Src/stm32f3xx_hal_dma.c ****     /* Update error code */
 634:Drivers/STM32F3xx_HAL_Driver/Src/stm32f3xx_hal_dma.c ****     hdma->ErrorCode = HAL_DMA_ERROR_TE;
 635:Drivers/STM32F3xx_HAL_Driver/Src/stm32f3xx_hal_dma.c ****     
 636:Drivers/STM32F3xx_HAL_Driver/Src/stm32f3xx_hal_dma.c ****     /* Change the DMA state */
 637:Drivers/STM32F3xx_HAL_Driver/Src/stm32f3xx_hal_dma.c ****     hdma->State = HAL_DMA_STATE_READY;    
 638:Drivers/STM32F3xx_HAL_Driver/Src/stm32f3xx_hal_dma.c ****     
 639:Drivers/STM32F3xx_HAL_Driver/Src/stm32f3xx_hal_dma.c ****     /* Process Unlocked */
 640:Drivers/STM32F3xx_HAL_Driver/Src/stm32f3xx_hal_dma.c ****     __HAL_UNLOCK(hdma); 
 641:Drivers/STM32F3xx_HAL_Driver/Src/stm32f3xx_hal_dma.c ****     
 642:Drivers/STM32F3xx_HAL_Driver/Src/stm32f3xx_hal_dma.c ****     if(hdma->XferErrorCallback != NULL)
 643:Drivers/STM32F3xx_HAL_Driver/Src/stm32f3xx_hal_dma.c ****     {
 644:Drivers/STM32F3xx_HAL_Driver/Src/stm32f3xx_hal_dma.c ****     	/* Transfer error callback */
 645:Drivers/STM32F3xx_HAL_Driver/Src/stm32f3xx_hal_dma.c ****     	hdma->XferErrorCallback(hdma);
 646:Drivers/STM32F3xx_HAL_Driver/Src/stm32f3xx_hal_dma.c ****     }
 647:Drivers/STM32F3xx_HAL_Driver/Src/stm32f3xx_hal_dma.c ****   }
 648:Drivers/STM32F3xx_HAL_Driver/Src/stm32f3xx_hal_dma.c **** }  
 649:Drivers/STM32F3xx_HAL_Driver/Src/stm32f3xx_hal_dma.c **** 
 650:Drivers/STM32F3xx_HAL_Driver/Src/stm32f3xx_hal_dma.c **** /**
 651:Drivers/STM32F3xx_HAL_Driver/Src/stm32f3xx_hal_dma.c ****   * @brief  Register callbacks
 652:Drivers/STM32F3xx_HAL_Driver/Src/stm32f3xx_hal_dma.c ****   * @param  hdma                 pointer to a DMA_HandleTypeDef structure that contains
 653:Drivers/STM32F3xx_HAL_Driver/Src/stm32f3xx_hal_dma.c ****   *                               the configuration information for the specified DMA Stream.
 654:Drivers/STM32F3xx_HAL_Driver/Src/stm32f3xx_hal_dma.c ****   * @param  CallbackID           User Callback identifier
 655:Drivers/STM32F3xx_HAL_Driver/Src/stm32f3xx_hal_dma.c ****   *                               a HAL_DMA_CallbackIDTypeDef ENUM as parameter.
 656:Drivers/STM32F3xx_HAL_Driver/Src/stm32f3xx_hal_dma.c ****   * @param  pCallback            pointer to private callback function which has pointer to 
 657:Drivers/STM32F3xx_HAL_Driver/Src/stm32f3xx_hal_dma.c ****   *                               a DMA_HandleTypeDef structure as parameter.
ARM GAS  C:\Users\NICHOL~2\AppData\Local\Temp\ccYots5l.s 			page 13


 658:Drivers/STM32F3xx_HAL_Driver/Src/stm32f3xx_hal_dma.c ****   * @retval HAL status
 659:Drivers/STM32F3xx_HAL_Driver/Src/stm32f3xx_hal_dma.c ****   */                          
 660:Drivers/STM32F3xx_HAL_Driver/Src/stm32f3xx_hal_dma.c **** HAL_StatusTypeDef HAL_DMA_RegisterCallback(DMA_HandleTypeDef *hdma, HAL_DMA_CallbackIDTypeDef Callb
 661:Drivers/STM32F3xx_HAL_Driver/Src/stm32f3xx_hal_dma.c **** {
 662:Drivers/STM32F3xx_HAL_Driver/Src/stm32f3xx_hal_dma.c ****   HAL_StatusTypeDef status = HAL_OK;
 663:Drivers/STM32F3xx_HAL_Driver/Src/stm32f3xx_hal_dma.c ****   
 664:Drivers/STM32F3xx_HAL_Driver/Src/stm32f3xx_hal_dma.c ****   /* Process locked */
 665:Drivers/STM32F3xx_HAL_Driver/Src/stm32f3xx_hal_dma.c ****   __HAL_LOCK(hdma);
 666:Drivers/STM32F3xx_HAL_Driver/Src/stm32f3xx_hal_dma.c ****   
 667:Drivers/STM32F3xx_HAL_Driver/Src/stm32f3xx_hal_dma.c ****   if(HAL_DMA_STATE_READY == hdma->State)
 668:Drivers/STM32F3xx_HAL_Driver/Src/stm32f3xx_hal_dma.c ****   {
 669:Drivers/STM32F3xx_HAL_Driver/Src/stm32f3xx_hal_dma.c ****     switch (CallbackID)
 670:Drivers/STM32F3xx_HAL_Driver/Src/stm32f3xx_hal_dma.c ****     {
 671:Drivers/STM32F3xx_HAL_Driver/Src/stm32f3xx_hal_dma.c ****      case  HAL_DMA_XFER_CPLT_CB_ID:
 672:Drivers/STM32F3xx_HAL_Driver/Src/stm32f3xx_hal_dma.c ****            hdma->XferCpltCallback = pCallback;
 673:Drivers/STM32F3xx_HAL_Driver/Src/stm32f3xx_hal_dma.c ****            break;
 674:Drivers/STM32F3xx_HAL_Driver/Src/stm32f3xx_hal_dma.c ****        
 675:Drivers/STM32F3xx_HAL_Driver/Src/stm32f3xx_hal_dma.c ****      case  HAL_DMA_XFER_HALFCPLT_CB_ID:
 676:Drivers/STM32F3xx_HAL_Driver/Src/stm32f3xx_hal_dma.c ****            hdma->XferHalfCpltCallback = pCallback;
 677:Drivers/STM32F3xx_HAL_Driver/Src/stm32f3xx_hal_dma.c ****            break;         
 678:Drivers/STM32F3xx_HAL_Driver/Src/stm32f3xx_hal_dma.c **** 
 679:Drivers/STM32F3xx_HAL_Driver/Src/stm32f3xx_hal_dma.c ****      case  HAL_DMA_XFER_ERROR_CB_ID:
 680:Drivers/STM32F3xx_HAL_Driver/Src/stm32f3xx_hal_dma.c ****            hdma->XferErrorCallback = pCallback;
 681:Drivers/STM32F3xx_HAL_Driver/Src/stm32f3xx_hal_dma.c ****            break;         
 682:Drivers/STM32F3xx_HAL_Driver/Src/stm32f3xx_hal_dma.c ****            
 683:Drivers/STM32F3xx_HAL_Driver/Src/stm32f3xx_hal_dma.c ****      case  HAL_DMA_XFER_ABORT_CB_ID:
 684:Drivers/STM32F3xx_HAL_Driver/Src/stm32f3xx_hal_dma.c ****            hdma->XferAbortCallback = pCallback;
 685:Drivers/STM32F3xx_HAL_Driver/Src/stm32f3xx_hal_dma.c ****            break; 
 686:Drivers/STM32F3xx_HAL_Driver/Src/stm32f3xx_hal_dma.c ****            
 687:Drivers/STM32F3xx_HAL_Driver/Src/stm32f3xx_hal_dma.c ****      default:
 688:Drivers/STM32F3xx_HAL_Driver/Src/stm32f3xx_hal_dma.c ****            status = HAL_ERROR;
 689:Drivers/STM32F3xx_HAL_Driver/Src/stm32f3xx_hal_dma.c ****            break;                                                            
 690:Drivers/STM32F3xx_HAL_Driver/Src/stm32f3xx_hal_dma.c ****     }
 691:Drivers/STM32F3xx_HAL_Driver/Src/stm32f3xx_hal_dma.c ****   }
 692:Drivers/STM32F3xx_HAL_Driver/Src/stm32f3xx_hal_dma.c ****   else
 693:Drivers/STM32F3xx_HAL_Driver/Src/stm32f3xx_hal_dma.c ****   {
 694:Drivers/STM32F3xx_HAL_Driver/Src/stm32f3xx_hal_dma.c ****     status = HAL_ERROR;
 695:Drivers/STM32F3xx_HAL_Driver/Src/stm32f3xx_hal_dma.c ****   } 
 696:Drivers/STM32F3xx_HAL_Driver/Src/stm32f3xx_hal_dma.c ****   
 697:Drivers/STM32F3xx_HAL_Driver/Src/stm32f3xx_hal_dma.c ****   /* Release Lock */
 698:Drivers/STM32F3xx_HAL_Driver/Src/stm32f3xx_hal_dma.c ****   __HAL_UNLOCK(hdma);
 699:Drivers/STM32F3xx_HAL_Driver/Src/stm32f3xx_hal_dma.c ****   
 700:Drivers/STM32F3xx_HAL_Driver/Src/stm32f3xx_hal_dma.c ****   return status;
 701:Drivers/STM32F3xx_HAL_Driver/Src/stm32f3xx_hal_dma.c **** }
 702:Drivers/STM32F3xx_HAL_Driver/Src/stm32f3xx_hal_dma.c **** 
 703:Drivers/STM32F3xx_HAL_Driver/Src/stm32f3xx_hal_dma.c **** /**
 704:Drivers/STM32F3xx_HAL_Driver/Src/stm32f3xx_hal_dma.c ****   * @brief  UnRegister callbacks
 705:Drivers/STM32F3xx_HAL_Driver/Src/stm32f3xx_hal_dma.c ****   * @param  hdma                 pointer to a DMA_HandleTypeDef structure that contains
 706:Drivers/STM32F3xx_HAL_Driver/Src/stm32f3xx_hal_dma.c ****   *                               the configuration information for the specified DMA Stream.
 707:Drivers/STM32F3xx_HAL_Driver/Src/stm32f3xx_hal_dma.c ****   * @param  CallbackID           User Callback identifier
 708:Drivers/STM32F3xx_HAL_Driver/Src/stm32f3xx_hal_dma.c ****   *                               a HAL_DMA_CallbackIDTypeDef ENUM as parameter.
 709:Drivers/STM32F3xx_HAL_Driver/Src/stm32f3xx_hal_dma.c ****   * @retval HAL status
 710:Drivers/STM32F3xx_HAL_Driver/Src/stm32f3xx_hal_dma.c ****   */              
 711:Drivers/STM32F3xx_HAL_Driver/Src/stm32f3xx_hal_dma.c **** HAL_StatusTypeDef HAL_DMA_UnRegisterCallback(DMA_HandleTypeDef *hdma, HAL_DMA_CallbackIDTypeDef Cal
 712:Drivers/STM32F3xx_HAL_Driver/Src/stm32f3xx_hal_dma.c **** {
 713:Drivers/STM32F3xx_HAL_Driver/Src/stm32f3xx_hal_dma.c ****   HAL_StatusTypeDef status = HAL_OK;
 714:Drivers/STM32F3xx_HAL_Driver/Src/stm32f3xx_hal_dma.c **** 
ARM GAS  C:\Users\NICHOL~2\AppData\Local\Temp\ccYots5l.s 			page 14


 715:Drivers/STM32F3xx_HAL_Driver/Src/stm32f3xx_hal_dma.c ****     /* Process locked */
 716:Drivers/STM32F3xx_HAL_Driver/Src/stm32f3xx_hal_dma.c ****   __HAL_LOCK(hdma);
 717:Drivers/STM32F3xx_HAL_Driver/Src/stm32f3xx_hal_dma.c ****   
 718:Drivers/STM32F3xx_HAL_Driver/Src/stm32f3xx_hal_dma.c ****   if(HAL_DMA_STATE_READY == hdma->State)
 719:Drivers/STM32F3xx_HAL_Driver/Src/stm32f3xx_hal_dma.c ****   {
 720:Drivers/STM32F3xx_HAL_Driver/Src/stm32f3xx_hal_dma.c ****     switch (CallbackID)
 721:Drivers/STM32F3xx_HAL_Driver/Src/stm32f3xx_hal_dma.c ****     {
 722:Drivers/STM32F3xx_HAL_Driver/Src/stm32f3xx_hal_dma.c ****      case  HAL_DMA_XFER_CPLT_CB_ID:
 723:Drivers/STM32F3xx_HAL_Driver/Src/stm32f3xx_hal_dma.c ****            hdma->XferCpltCallback = NULL;
 724:Drivers/STM32F3xx_HAL_Driver/Src/stm32f3xx_hal_dma.c ****            break;
 725:Drivers/STM32F3xx_HAL_Driver/Src/stm32f3xx_hal_dma.c ****        
 726:Drivers/STM32F3xx_HAL_Driver/Src/stm32f3xx_hal_dma.c ****      case  HAL_DMA_XFER_HALFCPLT_CB_ID:
 727:Drivers/STM32F3xx_HAL_Driver/Src/stm32f3xx_hal_dma.c ****            hdma->XferHalfCpltCallback = NULL;
 728:Drivers/STM32F3xx_HAL_Driver/Src/stm32f3xx_hal_dma.c ****            break;         
 729:Drivers/STM32F3xx_HAL_Driver/Src/stm32f3xx_hal_dma.c **** 
 730:Drivers/STM32F3xx_HAL_Driver/Src/stm32f3xx_hal_dma.c ****      case  HAL_DMA_XFER_ERROR_CB_ID:
 731:Drivers/STM32F3xx_HAL_Driver/Src/stm32f3xx_hal_dma.c ****            hdma->XferErrorCallback = NULL;
 732:Drivers/STM32F3xx_HAL_Driver/Src/stm32f3xx_hal_dma.c ****            break;         
 733:Drivers/STM32F3xx_HAL_Driver/Src/stm32f3xx_hal_dma.c ****            
 734:Drivers/STM32F3xx_HAL_Driver/Src/stm32f3xx_hal_dma.c ****      case  HAL_DMA_XFER_ABORT_CB_ID:
 735:Drivers/STM32F3xx_HAL_Driver/Src/stm32f3xx_hal_dma.c ****            hdma->XferAbortCallback = NULL;
 736:Drivers/STM32F3xx_HAL_Driver/Src/stm32f3xx_hal_dma.c ****            break; 
 737:Drivers/STM32F3xx_HAL_Driver/Src/stm32f3xx_hal_dma.c ****      
 738:Drivers/STM32F3xx_HAL_Driver/Src/stm32f3xx_hal_dma.c ****     case   HAL_DMA_XFER_ALL_CB_ID:
 739:Drivers/STM32F3xx_HAL_Driver/Src/stm32f3xx_hal_dma.c ****            hdma->XferCpltCallback = NULL;
 740:Drivers/STM32F3xx_HAL_Driver/Src/stm32f3xx_hal_dma.c ****            hdma->XferHalfCpltCallback = NULL;
 741:Drivers/STM32F3xx_HAL_Driver/Src/stm32f3xx_hal_dma.c ****            hdma->XferErrorCallback = NULL;
 742:Drivers/STM32F3xx_HAL_Driver/Src/stm32f3xx_hal_dma.c ****            hdma->XferAbortCallback = NULL;
 743:Drivers/STM32F3xx_HAL_Driver/Src/stm32f3xx_hal_dma.c ****            break; 
 744:Drivers/STM32F3xx_HAL_Driver/Src/stm32f3xx_hal_dma.c ****      
 745:Drivers/STM32F3xx_HAL_Driver/Src/stm32f3xx_hal_dma.c ****     default:
 746:Drivers/STM32F3xx_HAL_Driver/Src/stm32f3xx_hal_dma.c ****            status = HAL_ERROR;
 747:Drivers/STM32F3xx_HAL_Driver/Src/stm32f3xx_hal_dma.c ****            break;                                                            
 748:Drivers/STM32F3xx_HAL_Driver/Src/stm32f3xx_hal_dma.c ****     }
 749:Drivers/STM32F3xx_HAL_Driver/Src/stm32f3xx_hal_dma.c ****   }
 750:Drivers/STM32F3xx_HAL_Driver/Src/stm32f3xx_hal_dma.c ****   else
 751:Drivers/STM32F3xx_HAL_Driver/Src/stm32f3xx_hal_dma.c ****   {
 752:Drivers/STM32F3xx_HAL_Driver/Src/stm32f3xx_hal_dma.c ****     status = HAL_ERROR;
 753:Drivers/STM32F3xx_HAL_Driver/Src/stm32f3xx_hal_dma.c ****   } 
 754:Drivers/STM32F3xx_HAL_Driver/Src/stm32f3xx_hal_dma.c ****   
 755:Drivers/STM32F3xx_HAL_Driver/Src/stm32f3xx_hal_dma.c ****   /* Release Lock */
 756:Drivers/STM32F3xx_HAL_Driver/Src/stm32f3xx_hal_dma.c ****   __HAL_UNLOCK(hdma);
 757:Drivers/STM32F3xx_HAL_Driver/Src/stm32f3xx_hal_dma.c ****   
 758:Drivers/STM32F3xx_HAL_Driver/Src/stm32f3xx_hal_dma.c ****   return status;
 759:Drivers/STM32F3xx_HAL_Driver/Src/stm32f3xx_hal_dma.c **** }
 760:Drivers/STM32F3xx_HAL_Driver/Src/stm32f3xx_hal_dma.c **** 
 761:Drivers/STM32F3xx_HAL_Driver/Src/stm32f3xx_hal_dma.c **** /**
 762:Drivers/STM32F3xx_HAL_Driver/Src/stm32f3xx_hal_dma.c ****   * @}
 763:Drivers/STM32F3xx_HAL_Driver/Src/stm32f3xx_hal_dma.c ****   */
 764:Drivers/STM32F3xx_HAL_Driver/Src/stm32f3xx_hal_dma.c **** 
 765:Drivers/STM32F3xx_HAL_Driver/Src/stm32f3xx_hal_dma.c **** /** @defgroup DMA_Exported_Functions_Group3 Peripheral State functions
 766:Drivers/STM32F3xx_HAL_Driver/Src/stm32f3xx_hal_dma.c ****  *  @brief    Peripheral State functions 
 767:Drivers/STM32F3xx_HAL_Driver/Src/stm32f3xx_hal_dma.c ****  *
 768:Drivers/STM32F3xx_HAL_Driver/Src/stm32f3xx_hal_dma.c **** @verbatim   
 769:Drivers/STM32F3xx_HAL_Driver/Src/stm32f3xx_hal_dma.c ****  ===============================================================================
 770:Drivers/STM32F3xx_HAL_Driver/Src/stm32f3xx_hal_dma.c ****                     ##### State and Errors functions #####
 771:Drivers/STM32F3xx_HAL_Driver/Src/stm32f3xx_hal_dma.c ****  ===============================================================================  
ARM GAS  C:\Users\NICHOL~2\AppData\Local\Temp\ccYots5l.s 			page 15


 772:Drivers/STM32F3xx_HAL_Driver/Src/stm32f3xx_hal_dma.c ****     [..]
 773:Drivers/STM32F3xx_HAL_Driver/Src/stm32f3xx_hal_dma.c ****     This subsection provides functions allowing to
 774:Drivers/STM32F3xx_HAL_Driver/Src/stm32f3xx_hal_dma.c ****       (+) Check the DMA state
 775:Drivers/STM32F3xx_HAL_Driver/Src/stm32f3xx_hal_dma.c ****       (+) Get error code
 776:Drivers/STM32F3xx_HAL_Driver/Src/stm32f3xx_hal_dma.c **** 
 777:Drivers/STM32F3xx_HAL_Driver/Src/stm32f3xx_hal_dma.c **** @endverbatim
 778:Drivers/STM32F3xx_HAL_Driver/Src/stm32f3xx_hal_dma.c ****   * @{
 779:Drivers/STM32F3xx_HAL_Driver/Src/stm32f3xx_hal_dma.c ****   */  
 780:Drivers/STM32F3xx_HAL_Driver/Src/stm32f3xx_hal_dma.c **** 
 781:Drivers/STM32F3xx_HAL_Driver/Src/stm32f3xx_hal_dma.c **** /**
 782:Drivers/STM32F3xx_HAL_Driver/Src/stm32f3xx_hal_dma.c ****   * @brief  Returns the DMA state.
 783:Drivers/STM32F3xx_HAL_Driver/Src/stm32f3xx_hal_dma.c ****   * @param  hdma pointer to a DMA_HandleTypeDef structure that contains
 784:Drivers/STM32F3xx_HAL_Driver/Src/stm32f3xx_hal_dma.c ****   *               the configuration information for the specified DMA Channel.  
 785:Drivers/STM32F3xx_HAL_Driver/Src/stm32f3xx_hal_dma.c ****   * @retval HAL state
 786:Drivers/STM32F3xx_HAL_Driver/Src/stm32f3xx_hal_dma.c ****   */
 787:Drivers/STM32F3xx_HAL_Driver/Src/stm32f3xx_hal_dma.c **** HAL_DMA_StateTypeDef HAL_DMA_GetState(DMA_HandleTypeDef *hdma)
 788:Drivers/STM32F3xx_HAL_Driver/Src/stm32f3xx_hal_dma.c **** {
 789:Drivers/STM32F3xx_HAL_Driver/Src/stm32f3xx_hal_dma.c ****   return hdma->State;
 790:Drivers/STM32F3xx_HAL_Driver/Src/stm32f3xx_hal_dma.c **** }
 791:Drivers/STM32F3xx_HAL_Driver/Src/stm32f3xx_hal_dma.c **** 
 792:Drivers/STM32F3xx_HAL_Driver/Src/stm32f3xx_hal_dma.c **** /**
 793:Drivers/STM32F3xx_HAL_Driver/Src/stm32f3xx_hal_dma.c ****   * @brief  Return the DMA error code
 794:Drivers/STM32F3xx_HAL_Driver/Src/stm32f3xx_hal_dma.c ****   * @param  hdma pointer to a DMA_HandleTypeDef structure that contains
 795:Drivers/STM32F3xx_HAL_Driver/Src/stm32f3xx_hal_dma.c ****   *              the configuration information for the specified DMA Channel.
 796:Drivers/STM32F3xx_HAL_Driver/Src/stm32f3xx_hal_dma.c ****   * @retval DMA Error Code
 797:Drivers/STM32F3xx_HAL_Driver/Src/stm32f3xx_hal_dma.c ****   */
 798:Drivers/STM32F3xx_HAL_Driver/Src/stm32f3xx_hal_dma.c **** uint32_t HAL_DMA_GetError(DMA_HandleTypeDef *hdma)
 799:Drivers/STM32F3xx_HAL_Driver/Src/stm32f3xx_hal_dma.c **** {
 800:Drivers/STM32F3xx_HAL_Driver/Src/stm32f3xx_hal_dma.c ****   return hdma->ErrorCode;
 801:Drivers/STM32F3xx_HAL_Driver/Src/stm32f3xx_hal_dma.c **** }
 802:Drivers/STM32F3xx_HAL_Driver/Src/stm32f3xx_hal_dma.c **** 
 803:Drivers/STM32F3xx_HAL_Driver/Src/stm32f3xx_hal_dma.c **** /**
 804:Drivers/STM32F3xx_HAL_Driver/Src/stm32f3xx_hal_dma.c ****   * @}
 805:Drivers/STM32F3xx_HAL_Driver/Src/stm32f3xx_hal_dma.c ****   */
 806:Drivers/STM32F3xx_HAL_Driver/Src/stm32f3xx_hal_dma.c **** 
 807:Drivers/STM32F3xx_HAL_Driver/Src/stm32f3xx_hal_dma.c **** /**
 808:Drivers/STM32F3xx_HAL_Driver/Src/stm32f3xx_hal_dma.c ****   * @}
 809:Drivers/STM32F3xx_HAL_Driver/Src/stm32f3xx_hal_dma.c ****   */
 810:Drivers/STM32F3xx_HAL_Driver/Src/stm32f3xx_hal_dma.c **** 
 811:Drivers/STM32F3xx_HAL_Driver/Src/stm32f3xx_hal_dma.c **** /** @addtogroup DMA_Private_Functions
 812:Drivers/STM32F3xx_HAL_Driver/Src/stm32f3xx_hal_dma.c ****   * @{
 813:Drivers/STM32F3xx_HAL_Driver/Src/stm32f3xx_hal_dma.c ****   */
 814:Drivers/STM32F3xx_HAL_Driver/Src/stm32f3xx_hal_dma.c **** 
 815:Drivers/STM32F3xx_HAL_Driver/Src/stm32f3xx_hal_dma.c **** /**
 816:Drivers/STM32F3xx_HAL_Driver/Src/stm32f3xx_hal_dma.c ****   * @brief  Set the DMA Transfer parameters.
 817:Drivers/STM32F3xx_HAL_Driver/Src/stm32f3xx_hal_dma.c ****   * @param  hdma       pointer to a DMA_HandleTypeDef structure that contains
 818:Drivers/STM32F3xx_HAL_Driver/Src/stm32f3xx_hal_dma.c ****   *                     the configuration information for the specified DMA Channel.  
 819:Drivers/STM32F3xx_HAL_Driver/Src/stm32f3xx_hal_dma.c ****   * @param  SrcAddress The source memory Buffer address
 820:Drivers/STM32F3xx_HAL_Driver/Src/stm32f3xx_hal_dma.c ****   * @param  DstAddress The destination memory Buffer address
 821:Drivers/STM32F3xx_HAL_Driver/Src/stm32f3xx_hal_dma.c ****   * @param  DataLength The length of data to be transferred from source to destination
 822:Drivers/STM32F3xx_HAL_Driver/Src/stm32f3xx_hal_dma.c ****   * @retval HAL status
 823:Drivers/STM32F3xx_HAL_Driver/Src/stm32f3xx_hal_dma.c ****   */
 824:Drivers/STM32F3xx_HAL_Driver/Src/stm32f3xx_hal_dma.c **** static void DMA_SetConfig(DMA_HandleTypeDef *hdma, uint32_t SrcAddress, uint32_t DstAddress, uint32
 825:Drivers/STM32F3xx_HAL_Driver/Src/stm32f3xx_hal_dma.c **** {
  29              		.loc 1 825 1 view -0
  30              		.cfi_startproc
  31              		@ args = 0, pretend = 0, frame = 0
ARM GAS  C:\Users\NICHOL~2\AppData\Local\Temp\ccYots5l.s 			page 16


  32              		@ frame_needed = 0, uses_anonymous_args = 0
  33              		@ link register save eliminated.
  34              		.loc 1 825 1 is_stmt 0 view .LVU1
  35 0000 30B4     		push	{r4, r5}
  36              	.LCFI0:
  37              		.cfi_def_cfa_offset 8
  38              		.cfi_offset 4, -8
  39              		.cfi_offset 5, -4
 826:Drivers/STM32F3xx_HAL_Driver/Src/stm32f3xx_hal_dma.c **** 	/* Clear all flags */
 827:Drivers/STM32F3xx_HAL_Driver/Src/stm32f3xx_hal_dma.c ****   hdma->DmaBaseAddress->IFCR  = (DMA_FLAG_GL1 << hdma->ChannelIndex);
  40              		.loc 1 827 3 is_stmt 1 view .LVU2
  41              		.loc 1 827 47 is_stmt 0 view .LVU3
  42 0002 0124     		movs	r4, #1
  43 0004 056C     		ldr	r5, [r0, #64]
  44 0006 AC40     		lsls	r4, r4, r5
  45              		.loc 1 827 31 view .LVU4
  46 0008 C56B     		ldr	r5, [r0, #60]
  47 000a 6C60     		str	r4, [r5, #4]
 828:Drivers/STM32F3xx_HAL_Driver/Src/stm32f3xx_hal_dma.c ****   
 829:Drivers/STM32F3xx_HAL_Driver/Src/stm32f3xx_hal_dma.c ****   /* Configure DMA Channel data length */
 830:Drivers/STM32F3xx_HAL_Driver/Src/stm32f3xx_hal_dma.c ****   hdma->Instance->CNDTR = DataLength;
  48              		.loc 1 830 3 is_stmt 1 view .LVU5
  49              		.loc 1 830 7 is_stmt 0 view .LVU6
  50 000c 0468     		ldr	r4, [r0]
  51              		.loc 1 830 25 view .LVU7
  52 000e 6360     		str	r3, [r4, #4]
 831:Drivers/STM32F3xx_HAL_Driver/Src/stm32f3xx_hal_dma.c ****   
 832:Drivers/STM32F3xx_HAL_Driver/Src/stm32f3xx_hal_dma.c ****   /* Peripheral to Memory */
 833:Drivers/STM32F3xx_HAL_Driver/Src/stm32f3xx_hal_dma.c ****   if((hdma->Init.Direction) == DMA_MEMORY_TO_PERIPH)
  53              		.loc 1 833 3 is_stmt 1 view .LVU8
  54              		.loc 1 833 17 is_stmt 0 view .LVU9
  55 0010 4368     		ldr	r3, [r0, #4]
  56              	.LVL1:
  57              		.loc 1 833 5 view .LVU10
  58 0012 102B     		cmp	r3, #16
  59 0014 05D0     		beq	.L5
 834:Drivers/STM32F3xx_HAL_Driver/Src/stm32f3xx_hal_dma.c ****   {   
 835:Drivers/STM32F3xx_HAL_Driver/Src/stm32f3xx_hal_dma.c ****     /* Configure DMA Channel destination address */
 836:Drivers/STM32F3xx_HAL_Driver/Src/stm32f3xx_hal_dma.c ****     hdma->Instance->CPAR = DstAddress;
 837:Drivers/STM32F3xx_HAL_Driver/Src/stm32f3xx_hal_dma.c ****     
 838:Drivers/STM32F3xx_HAL_Driver/Src/stm32f3xx_hal_dma.c ****     /* Configure DMA Channel source address */
 839:Drivers/STM32F3xx_HAL_Driver/Src/stm32f3xx_hal_dma.c ****     hdma->Instance->CMAR = SrcAddress;
 840:Drivers/STM32F3xx_HAL_Driver/Src/stm32f3xx_hal_dma.c ****   }
 841:Drivers/STM32F3xx_HAL_Driver/Src/stm32f3xx_hal_dma.c ****   /* Memory to Peripheral */
 842:Drivers/STM32F3xx_HAL_Driver/Src/stm32f3xx_hal_dma.c ****   else
 843:Drivers/STM32F3xx_HAL_Driver/Src/stm32f3xx_hal_dma.c ****   {
 844:Drivers/STM32F3xx_HAL_Driver/Src/stm32f3xx_hal_dma.c ****     /* Configure DMA Channel source address */
 845:Drivers/STM32F3xx_HAL_Driver/Src/stm32f3xx_hal_dma.c ****     hdma->Instance->CPAR = SrcAddress;
  60              		.loc 1 845 5 is_stmt 1 view .LVU11
  61              		.loc 1 845 9 is_stmt 0 view .LVU12
  62 0016 0368     		ldr	r3, [r0]
  63              		.loc 1 845 26 view .LVU13
  64 0018 9960     		str	r1, [r3, #8]
  65              	.LVL2:
 846:Drivers/STM32F3xx_HAL_Driver/Src/stm32f3xx_hal_dma.c ****     
 847:Drivers/STM32F3xx_HAL_Driver/Src/stm32f3xx_hal_dma.c ****     /* Configure DMA Channel destination address */
 848:Drivers/STM32F3xx_HAL_Driver/Src/stm32f3xx_hal_dma.c ****     hdma->Instance->CMAR = DstAddress;
ARM GAS  C:\Users\NICHOL~2\AppData\Local\Temp\ccYots5l.s 			page 17


  66              		.loc 1 848 5 is_stmt 1 view .LVU14
  67              		.loc 1 848 9 is_stmt 0 view .LVU15
  68 001a 0368     		ldr	r3, [r0]
  69              		.loc 1 848 26 view .LVU16
  70 001c DA60     		str	r2, [r3, #12]
  71              	.L1:
 849:Drivers/STM32F3xx_HAL_Driver/Src/stm32f3xx_hal_dma.c ****   }
 850:Drivers/STM32F3xx_HAL_Driver/Src/stm32f3xx_hal_dma.c **** }
  72              		.loc 1 850 1 view .LVU17
  73 001e 30BC     		pop	{r4, r5}
  74              	.LCFI1:
  75              		.cfi_remember_state
  76              		.cfi_restore 5
  77              		.cfi_restore 4
  78              		.cfi_def_cfa_offset 0
  79 0020 7047     		bx	lr
  80              	.LVL3:
  81              	.L5:
  82              	.LCFI2:
  83              		.cfi_restore_state
 836:Drivers/STM32F3xx_HAL_Driver/Src/stm32f3xx_hal_dma.c ****     
  84              		.loc 1 836 5 is_stmt 1 view .LVU18
 836:Drivers/STM32F3xx_HAL_Driver/Src/stm32f3xx_hal_dma.c ****     
  85              		.loc 1 836 9 is_stmt 0 view .LVU19
  86 0022 0368     		ldr	r3, [r0]
 836:Drivers/STM32F3xx_HAL_Driver/Src/stm32f3xx_hal_dma.c ****     
  87              		.loc 1 836 26 view .LVU20
  88 0024 9A60     		str	r2, [r3, #8]
  89              	.LVL4:
 839:Drivers/STM32F3xx_HAL_Driver/Src/stm32f3xx_hal_dma.c ****   }
  90              		.loc 1 839 5 is_stmt 1 view .LVU21
 839:Drivers/STM32F3xx_HAL_Driver/Src/stm32f3xx_hal_dma.c ****   }
  91              		.loc 1 839 9 is_stmt 0 view .LVU22
  92 0026 0368     		ldr	r3, [r0]
 839:Drivers/STM32F3xx_HAL_Driver/Src/stm32f3xx_hal_dma.c ****   }
  93              		.loc 1 839 26 view .LVU23
  94 0028 D960     		str	r1, [r3, #12]
  95 002a F8E7     		b	.L1
  96              		.cfi_endproc
  97              	.LFE142:
  99              		.section	.text.DMA_CalcBaseAndBitshift,"ax",%progbits
 100              		.align	1
 101              		.syntax unified
 102              		.thumb
 103              		.thumb_func
 105              	DMA_CalcBaseAndBitshift:
 106              	.LVL5:
 107              	.LFB143:
 851:Drivers/STM32F3xx_HAL_Driver/Src/stm32f3xx_hal_dma.c **** 
 852:Drivers/STM32F3xx_HAL_Driver/Src/stm32f3xx_hal_dma.c **** /**
 853:Drivers/STM32F3xx_HAL_Driver/Src/stm32f3xx_hal_dma.c ****   * @brief  Set the DMA base address and channel index depending on DMA instance
 854:Drivers/STM32F3xx_HAL_Driver/Src/stm32f3xx_hal_dma.c ****   * @param  hdma       pointer to a DMA_HandleTypeDef structure that contains
 855:Drivers/STM32F3xx_HAL_Driver/Src/stm32f3xx_hal_dma.c ****   *                     the configuration information for the specified DMA Stream. 
 856:Drivers/STM32F3xx_HAL_Driver/Src/stm32f3xx_hal_dma.c ****   * @retval None
 857:Drivers/STM32F3xx_HAL_Driver/Src/stm32f3xx_hal_dma.c ****   */
 858:Drivers/STM32F3xx_HAL_Driver/Src/stm32f3xx_hal_dma.c **** static void DMA_CalcBaseAndBitshift(DMA_HandleTypeDef *hdma)
 859:Drivers/STM32F3xx_HAL_Driver/Src/stm32f3xx_hal_dma.c **** {
ARM GAS  C:\Users\NICHOL~2\AppData\Local\Temp\ccYots5l.s 			page 18


 108              		.loc 1 859 1 is_stmt 1 view -0
 109              		.cfi_startproc
 110              		@ args = 0, pretend = 0, frame = 0
 111              		@ frame_needed = 0, uses_anonymous_args = 0
 112              		@ link register save eliminated.
 860:Drivers/STM32F3xx_HAL_Driver/Src/stm32f3xx_hal_dma.c **** #if defined (DMA2)
 861:Drivers/STM32F3xx_HAL_Driver/Src/stm32f3xx_hal_dma.c ****   /* calculation of the channel index */
 862:Drivers/STM32F3xx_HAL_Driver/Src/stm32f3xx_hal_dma.c ****   if ((uint32_t)(hdma->Instance) < (uint32_t)(DMA2_Channel1))
 113              		.loc 1 862 3 view .LVU25
 114              		.loc 1 862 22 is_stmt 0 view .LVU26
 115 0000 0268     		ldr	r2, [r0]
 116              		.loc 1 862 6 view .LVU27
 117 0002 0C4B     		ldr	r3, .L9
 118 0004 9A42     		cmp	r2, r3
 119 0006 0AD8     		bhi	.L7
 863:Drivers/STM32F3xx_HAL_Driver/Src/stm32f3xx_hal_dma.c ****   {
 864:Drivers/STM32F3xx_HAL_Driver/Src/stm32f3xx_hal_dma.c ****     /* DMA1 */
 865:Drivers/STM32F3xx_HAL_Driver/Src/stm32f3xx_hal_dma.c ****     hdma->ChannelIndex = (((uint32_t)hdma->Instance - (uint32_t)DMA1_Channel1) / ((uint32_t)DMA1_Ch
 120              		.loc 1 865 5 is_stmt 1 view .LVU28
 121              		.loc 1 865 53 is_stmt 0 view .LVU29
 122 0008 0B4B     		ldr	r3, .L9+4
 123 000a 1344     		add	r3, r3, r2
 124              		.loc 1 865 80 view .LVU30
 125 000c 0B4A     		ldr	r2, .L9+8
 126 000e A2FB0323 		umull	r2, r3, r2, r3
 127 0012 1B09     		lsrs	r3, r3, #4
 128              		.loc 1 865 135 view .LVU31
 129 0014 9B00     		lsls	r3, r3, #2
 130              		.loc 1 865 24 view .LVU32
 131 0016 0364     		str	r3, [r0, #64]
 866:Drivers/STM32F3xx_HAL_Driver/Src/stm32f3xx_hal_dma.c ****     hdma->DmaBaseAddress = DMA1;
 132              		.loc 1 866 5 is_stmt 1 view .LVU33
 133              		.loc 1 866 26 is_stmt 0 view .LVU34
 134 0018 094B     		ldr	r3, .L9+12
 135 001a C363     		str	r3, [r0, #60]
 136 001c 7047     		bx	lr
 137              	.L7:
 867:Drivers/STM32F3xx_HAL_Driver/Src/stm32f3xx_hal_dma.c ****   }
 868:Drivers/STM32F3xx_HAL_Driver/Src/stm32f3xx_hal_dma.c ****   else 
 869:Drivers/STM32F3xx_HAL_Driver/Src/stm32f3xx_hal_dma.c ****   {
 870:Drivers/STM32F3xx_HAL_Driver/Src/stm32f3xx_hal_dma.c ****     /* DMA2 */
 871:Drivers/STM32F3xx_HAL_Driver/Src/stm32f3xx_hal_dma.c ****     hdma->ChannelIndex = (((uint32_t)hdma->Instance - (uint32_t)DMA2_Channel1) / ((uint32_t)DMA2_Ch
 138              		.loc 1 871 5 is_stmt 1 view .LVU35
 139              		.loc 1 871 53 is_stmt 0 view .LVU36
 140 001e 094B     		ldr	r3, .L9+16
 141 0020 1344     		add	r3, r3, r2
 142              		.loc 1 871 80 view .LVU37
 143 0022 064A     		ldr	r2, .L9+8
 144 0024 A2FB0323 		umull	r2, r3, r2, r3
 145 0028 1B09     		lsrs	r3, r3, #4
 146              		.loc 1 871 135 view .LVU38
 147 002a 9B00     		lsls	r3, r3, #2
 148              		.loc 1 871 24 view .LVU39
 149 002c 0364     		str	r3, [r0, #64]
 872:Drivers/STM32F3xx_HAL_Driver/Src/stm32f3xx_hal_dma.c ****     hdma->DmaBaseAddress = DMA2;
 150              		.loc 1 872 5 is_stmt 1 view .LVU40
 151              		.loc 1 872 26 is_stmt 0 view .LVU41
ARM GAS  C:\Users\NICHOL~2\AppData\Local\Temp\ccYots5l.s 			page 19


 152 002e 064B     		ldr	r3, .L9+20
 153 0030 C363     		str	r3, [r0, #60]
 873:Drivers/STM32F3xx_HAL_Driver/Src/stm32f3xx_hal_dma.c ****   }
 874:Drivers/STM32F3xx_HAL_Driver/Src/stm32f3xx_hal_dma.c **** #else
 875:Drivers/STM32F3xx_HAL_Driver/Src/stm32f3xx_hal_dma.c ****   /* calculation of the channel index */
 876:Drivers/STM32F3xx_HAL_Driver/Src/stm32f3xx_hal_dma.c ****   /* DMA1 */
 877:Drivers/STM32F3xx_HAL_Driver/Src/stm32f3xx_hal_dma.c ****   hdma->ChannelIndex = (((uint32_t)hdma->Instance - (uint32_t)DMA1_Channel1) / ((uint32_t)DMA1_Chan
 878:Drivers/STM32F3xx_HAL_Driver/Src/stm32f3xx_hal_dma.c ****   hdma->DmaBaseAddress = DMA1;
 879:Drivers/STM32F3xx_HAL_Driver/Src/stm32f3xx_hal_dma.c **** #endif
 880:Drivers/STM32F3xx_HAL_Driver/Src/stm32f3xx_hal_dma.c **** }
 154              		.loc 1 880 1 view .LVU42
 155 0032 7047     		bx	lr
 156              	.L10:
 157              		.align	2
 158              	.L9:
 159 0034 07040240 		.word	1073873927
 160 0038 F8FFFDBF 		.word	-1073872904
 161 003c CDCCCCCC 		.word	-858993459
 162 0040 00000240 		.word	1073872896
 163 0044 F8FBFDBF 		.word	-1073873928
 164 0048 00040240 		.word	1073873920
 165              		.cfi_endproc
 166              	.LFE143:
 168              		.section	.text.HAL_DMA_Init,"ax",%progbits
 169              		.align	1
 170              		.global	HAL_DMA_Init
 171              		.syntax unified
 172              		.thumb
 173              		.thumb_func
 175              	HAL_DMA_Init:
 176              	.LVL6:
 177              	.LFB130:
 137:Drivers/STM32F3xx_HAL_Driver/Src/stm32f3xx_hal_dma.c ****   uint32_t tmp = 0U;
 178              		.loc 1 137 1 is_stmt 1 view -0
 179              		.cfi_startproc
 180              		@ args = 0, pretend = 0, frame = 0
 181              		@ frame_needed = 0, uses_anonymous_args = 0
 138:Drivers/STM32F3xx_HAL_Driver/Src/stm32f3xx_hal_dma.c ****   
 182              		.loc 1 138 3 view .LVU44
 141:Drivers/STM32F3xx_HAL_Driver/Src/stm32f3xx_hal_dma.c ****   {
 183              		.loc 1 141 3 view .LVU45
 141:Drivers/STM32F3xx_HAL_Driver/Src/stm32f3xx_hal_dma.c ****   {
 184              		.loc 1 141 5 is_stmt 0 view .LVU46
 185 0000 20B3     		cbz	r0, .L13
 137:Drivers/STM32F3xx_HAL_Driver/Src/stm32f3xx_hal_dma.c ****   uint32_t tmp = 0U;
 186              		.loc 1 137 1 view .LVU47
 187 0002 10B5     		push	{r4, lr}
 188              	.LCFI3:
 189              		.cfi_def_cfa_offset 8
 190              		.cfi_offset 4, -8
 191              		.cfi_offset 14, -4
 192 0004 0446     		mov	r4, r0
 147:Drivers/STM32F3xx_HAL_Driver/Src/stm32f3xx_hal_dma.c ****   assert_param(IS_DMA_DIRECTION(hdma->Init.Direction));
 193              		.loc 1 147 3 is_stmt 1 view .LVU48
 148:Drivers/STM32F3xx_HAL_Driver/Src/stm32f3xx_hal_dma.c ****   assert_param(IS_DMA_PERIPHERAL_INC_STATE(hdma->Init.PeriphInc));
 194              		.loc 1 148 3 view .LVU49
 149:Drivers/STM32F3xx_HAL_Driver/Src/stm32f3xx_hal_dma.c ****   assert_param(IS_DMA_MEMORY_INC_STATE(hdma->Init.MemInc));
ARM GAS  C:\Users\NICHOL~2\AppData\Local\Temp\ccYots5l.s 			page 20


 195              		.loc 1 149 3 view .LVU50
 150:Drivers/STM32F3xx_HAL_Driver/Src/stm32f3xx_hal_dma.c ****   assert_param(IS_DMA_PERIPHERAL_DATA_SIZE(hdma->Init.PeriphDataAlignment));
 196              		.loc 1 150 3 view .LVU51
 151:Drivers/STM32F3xx_HAL_Driver/Src/stm32f3xx_hal_dma.c ****   assert_param(IS_DMA_MEMORY_DATA_SIZE(hdma->Init.MemDataAlignment));
 197              		.loc 1 151 3 view .LVU52
 152:Drivers/STM32F3xx_HAL_Driver/Src/stm32f3xx_hal_dma.c ****   assert_param(IS_DMA_MODE(hdma->Init.Mode));
 198              		.loc 1 152 3 view .LVU53
 153:Drivers/STM32F3xx_HAL_Driver/Src/stm32f3xx_hal_dma.c ****   assert_param(IS_DMA_PRIORITY(hdma->Init.Priority));
 199              		.loc 1 153 3 view .LVU54
 154:Drivers/STM32F3xx_HAL_Driver/Src/stm32f3xx_hal_dma.c ****   
 200              		.loc 1 154 3 view .LVU55
 157:Drivers/STM32F3xx_HAL_Driver/Src/stm32f3xx_hal_dma.c **** 
 201              		.loc 1 157 3 view .LVU56
 157:Drivers/STM32F3xx_HAL_Driver/Src/stm32f3xx_hal_dma.c **** 
 202              		.loc 1 157 15 is_stmt 0 view .LVU57
 203 0006 0223     		movs	r3, #2
 204 0008 80F82130 		strb	r3, [r0, #33]
 160:Drivers/STM32F3xx_HAL_Driver/Src/stm32f3xx_hal_dma.c ****   
 205              		.loc 1 160 3 is_stmt 1 view .LVU58
 160:Drivers/STM32F3xx_HAL_Driver/Src/stm32f3xx_hal_dma.c ****   
 206              		.loc 1 160 13 is_stmt 0 view .LVU59
 207 000c 0168     		ldr	r1, [r0]
 160:Drivers/STM32F3xx_HAL_Driver/Src/stm32f3xx_hal_dma.c ****   
 208              		.loc 1 160 7 view .LVU60
 209 000e 0A68     		ldr	r2, [r1]
 210              	.LVL7:
 163:Drivers/STM32F3xx_HAL_Driver/Src/stm32f3xx_hal_dma.c ****                       DMA_CCR_MINC  | DMA_CCR_PINC   | DMA_CCR_CIRC   | \
 211              		.loc 1 163 3 is_stmt 1 view .LVU61
 163:Drivers/STM32F3xx_HAL_Driver/Src/stm32f3xx_hal_dma.c ****                       DMA_CCR_MINC  | DMA_CCR_PINC   | DMA_CCR_CIRC   | \
 212              		.loc 1 163 7 is_stmt 0 view .LVU62
 213 0010 22F47F52 		bic	r2, r2, #16320
 214              	.LVL8:
 163:Drivers/STM32F3xx_HAL_Driver/Src/stm32f3xx_hal_dma.c ****                       DMA_CCR_MINC  | DMA_CCR_PINC   | DMA_CCR_CIRC   | \
 215              		.loc 1 163 7 view .LVU63
 216 0014 22F03002 		bic	r2, r2, #48
 217              	.LVL9:
 168:Drivers/STM32F3xx_HAL_Driver/Src/stm32f3xx_hal_dma.c ****           hdma->Init.PeriphInc           | hdma->Init.MemInc           |
 218              		.loc 1 168 3 is_stmt 1 view .LVU64
 168:Drivers/STM32F3xx_HAL_Driver/Src/stm32f3xx_hal_dma.c ****           hdma->Init.PeriphInc           | hdma->Init.MemInc           |
 219              		.loc 1 168 21 is_stmt 0 view .LVU65
 220 0018 4368     		ldr	r3, [r0, #4]
 169:Drivers/STM32F3xx_HAL_Driver/Src/stm32f3xx_hal_dma.c ****           hdma->Init.PeriphDataAlignment | hdma->Init.MemDataAlignment |
 221              		.loc 1 169 21 view .LVU66
 222 001a 8068     		ldr	r0, [r0, #8]
 223              	.LVL10:
 168:Drivers/STM32F3xx_HAL_Driver/Src/stm32f3xx_hal_dma.c ****           hdma->Init.PeriphInc           | hdma->Init.MemInc           |
 224              		.loc 1 168 39 view .LVU67
 225 001c 0343     		orrs	r3, r3, r0
 169:Drivers/STM32F3xx_HAL_Driver/Src/stm32f3xx_hal_dma.c ****           hdma->Init.PeriphDataAlignment | hdma->Init.MemDataAlignment |
 226              		.loc 1 169 54 view .LVU68
 227 001e E068     		ldr	r0, [r4, #12]
 169:Drivers/STM32F3xx_HAL_Driver/Src/stm32f3xx_hal_dma.c ****           hdma->Init.PeriphDataAlignment | hdma->Init.MemDataAlignment |
 228              		.loc 1 169 42 view .LVU69
 229 0020 0343     		orrs	r3, r3, r0
 170:Drivers/STM32F3xx_HAL_Driver/Src/stm32f3xx_hal_dma.c ****           hdma->Init.Mode                | hdma->Init.Priority;
 230              		.loc 1 170 21 view .LVU70
 231 0022 2069     		ldr	r0, [r4, #16]
ARM GAS  C:\Users\NICHOL~2\AppData\Local\Temp\ccYots5l.s 			page 21


 169:Drivers/STM32F3xx_HAL_Driver/Src/stm32f3xx_hal_dma.c ****           hdma->Init.PeriphDataAlignment | hdma->Init.MemDataAlignment |
 232              		.loc 1 169 72 view .LVU71
 233 0024 0343     		orrs	r3, r3, r0
 170:Drivers/STM32F3xx_HAL_Driver/Src/stm32f3xx_hal_dma.c ****           hdma->Init.Mode                | hdma->Init.Priority;
 234              		.loc 1 170 54 view .LVU72
 235 0026 6069     		ldr	r0, [r4, #20]
 170:Drivers/STM32F3xx_HAL_Driver/Src/stm32f3xx_hal_dma.c ****           hdma->Init.Mode                | hdma->Init.Priority;
 236              		.loc 1 170 42 view .LVU73
 237 0028 0343     		orrs	r3, r3, r0
 171:Drivers/STM32F3xx_HAL_Driver/Src/stm32f3xx_hal_dma.c **** 
 238              		.loc 1 171 21 view .LVU74
 239 002a A069     		ldr	r0, [r4, #24]
 170:Drivers/STM32F3xx_HAL_Driver/Src/stm32f3xx_hal_dma.c ****           hdma->Init.Mode                | hdma->Init.Priority;
 240              		.loc 1 170 72 view .LVU75
 241 002c 0343     		orrs	r3, r3, r0
 171:Drivers/STM32F3xx_HAL_Driver/Src/stm32f3xx_hal_dma.c **** 
 242              		.loc 1 171 54 view .LVU76
 243 002e E069     		ldr	r0, [r4, #28]
 171:Drivers/STM32F3xx_HAL_Driver/Src/stm32f3xx_hal_dma.c **** 
 244              		.loc 1 171 42 view .LVU77
 245 0030 0343     		orrs	r3, r3, r0
 168:Drivers/STM32F3xx_HAL_Driver/Src/stm32f3xx_hal_dma.c ****           hdma->Init.PeriphInc           | hdma->Init.MemInc           |
 246              		.loc 1 168 7 view .LVU78
 247 0032 1343     		orrs	r3, r3, r2
 248              	.LVL11:
 174:Drivers/STM32F3xx_HAL_Driver/Src/stm32f3xx_hal_dma.c ****   
 249              		.loc 1 174 3 is_stmt 1 view .LVU79
 174:Drivers/STM32F3xx_HAL_Driver/Src/stm32f3xx_hal_dma.c ****   
 250              		.loc 1 174 23 is_stmt 0 view .LVU80
 251 0034 0B60     		str	r3, [r1]
 178:Drivers/STM32F3xx_HAL_Driver/Src/stm32f3xx_hal_dma.c ****   
 252              		.loc 1 178 3 is_stmt 1 view .LVU81
 253 0036 2046     		mov	r0, r4
 254 0038 FFF7FEFF 		bl	DMA_CalcBaseAndBitshift
 255              	.LVL12:
 181:Drivers/STM32F3xx_HAL_Driver/Src/stm32f3xx_hal_dma.c **** 
 256              		.loc 1 181 3 view .LVU82
 181:Drivers/STM32F3xx_HAL_Driver/Src/stm32f3xx_hal_dma.c **** 
 257              		.loc 1 181 19 is_stmt 0 view .LVU83
 258 003c 0020     		movs	r0, #0
 259 003e A063     		str	r0, [r4, #56]
 184:Drivers/STM32F3xx_HAL_Driver/Src/stm32f3xx_hal_dma.c ****   
 260              		.loc 1 184 3 is_stmt 1 view .LVU84
 184:Drivers/STM32F3xx_HAL_Driver/Src/stm32f3xx_hal_dma.c ****   
 261              		.loc 1 184 15 is_stmt 0 view .LVU85
 262 0040 0123     		movs	r3, #1
 263 0042 84F82130 		strb	r3, [r4, #33]
 187:Drivers/STM32F3xx_HAL_Driver/Src/stm32f3xx_hal_dma.c ****   
 264              		.loc 1 187 3 is_stmt 1 view .LVU86
 187:Drivers/STM32F3xx_HAL_Driver/Src/stm32f3xx_hal_dma.c ****   
 265              		.loc 1 187 14 is_stmt 0 view .LVU87
 266 0046 84F82000 		strb	r0, [r4, #32]
 189:Drivers/STM32F3xx_HAL_Driver/Src/stm32f3xx_hal_dma.c **** }  
 267              		.loc 1 189 3 is_stmt 1 view .LVU88
 190:Drivers/STM32F3xx_HAL_Driver/Src/stm32f3xx_hal_dma.c ****   
 268              		.loc 1 190 1 is_stmt 0 view .LVU89
 269 004a 10BD     		pop	{r4, pc}
ARM GAS  C:\Users\NICHOL~2\AppData\Local\Temp\ccYots5l.s 			page 22


 270              	.LVL13:
 271              	.L13:
 272              	.LCFI4:
 273              		.cfi_def_cfa_offset 0
 274              		.cfi_restore 4
 275              		.cfi_restore 14
 143:Drivers/STM32F3xx_HAL_Driver/Src/stm32f3xx_hal_dma.c ****   }
 276              		.loc 1 143 12 view .LVU90
 277 004c 0120     		movs	r0, #1
 278              	.LVL14:
 190:Drivers/STM32F3xx_HAL_Driver/Src/stm32f3xx_hal_dma.c ****   
 279              		.loc 1 190 1 view .LVU91
 280 004e 7047     		bx	lr
 281              		.cfi_endproc
 282              	.LFE130:
 284              		.section	.text.HAL_DMA_DeInit,"ax",%progbits
 285              		.align	1
 286              		.global	HAL_DMA_DeInit
 287              		.syntax unified
 288              		.thumb
 289              		.thumb_func
 291              	HAL_DMA_DeInit:
 292              	.LVL15:
 293              	.LFB131:
 199:Drivers/STM32F3xx_HAL_Driver/Src/stm32f3xx_hal_dma.c ****   /* Check the DMA handle allocation */
 294              		.loc 1 199 1 is_stmt 1 view -0
 295              		.cfi_startproc
 296              		@ args = 0, pretend = 0, frame = 0
 297              		@ frame_needed = 0, uses_anonymous_args = 0
 201:Drivers/STM32F3xx_HAL_Driver/Src/stm32f3xx_hal_dma.c ****   {
 298              		.loc 1 201 3 view .LVU93
 201:Drivers/STM32F3xx_HAL_Driver/Src/stm32f3xx_hal_dma.c ****   {
 299              		.loc 1 201 5 is_stmt 0 view .LVU94
 300 0000 08B3     		cbz	r0, .L20
 199:Drivers/STM32F3xx_HAL_Driver/Src/stm32f3xx_hal_dma.c ****   /* Check the DMA handle allocation */
 301              		.loc 1 199 1 view .LVU95
 302 0002 38B5     		push	{r3, r4, r5, lr}
 303              	.LCFI5:
 304              		.cfi_def_cfa_offset 16
 305              		.cfi_offset 3, -16
 306              		.cfi_offset 4, -12
 307              		.cfi_offset 5, -8
 308              		.cfi_offset 14, -4
 309 0004 0446     		mov	r4, r0
 207:Drivers/STM32F3xx_HAL_Driver/Src/stm32f3xx_hal_dma.c **** 
 310              		.loc 1 207 3 is_stmt 1 view .LVU96
 210:Drivers/STM32F3xx_HAL_Driver/Src/stm32f3xx_hal_dma.c **** 
 311              		.loc 1 210 3 view .LVU97
 210:Drivers/STM32F3xx_HAL_Driver/Src/stm32f3xx_hal_dma.c **** 
 312              		.loc 1 210 7 is_stmt 0 view .LVU98
 313 0006 0268     		ldr	r2, [r0]
 210:Drivers/STM32F3xx_HAL_Driver/Src/stm32f3xx_hal_dma.c **** 
 314              		.loc 1 210 23 view .LVU99
 315 0008 1368     		ldr	r3, [r2]
 316 000a 23F00103 		bic	r3, r3, #1
 317 000e 1360     		str	r3, [r2]
 213:Drivers/STM32F3xx_HAL_Driver/Src/stm32f3xx_hal_dma.c **** 
ARM GAS  C:\Users\NICHOL~2\AppData\Local\Temp\ccYots5l.s 			page 23


 318              		.loc 1 213 3 is_stmt 1 view .LVU100
 213:Drivers/STM32F3xx_HAL_Driver/Src/stm32f3xx_hal_dma.c **** 
 319              		.loc 1 213 7 is_stmt 0 view .LVU101
 320 0010 0368     		ldr	r3, [r0]
 213:Drivers/STM32F3xx_HAL_Driver/Src/stm32f3xx_hal_dma.c **** 
 321              		.loc 1 213 24 view .LVU102
 322 0012 0025     		movs	r5, #0
 323 0014 1D60     		str	r5, [r3]
 216:Drivers/STM32F3xx_HAL_Driver/Src/stm32f3xx_hal_dma.c **** 
 324              		.loc 1 216 3 is_stmt 1 view .LVU103
 216:Drivers/STM32F3xx_HAL_Driver/Src/stm32f3xx_hal_dma.c **** 
 325              		.loc 1 216 7 is_stmt 0 view .LVU104
 326 0016 0368     		ldr	r3, [r0]
 216:Drivers/STM32F3xx_HAL_Driver/Src/stm32f3xx_hal_dma.c **** 
 327              		.loc 1 216 25 view .LVU105
 328 0018 5D60     		str	r5, [r3, #4]
 219:Drivers/STM32F3xx_HAL_Driver/Src/stm32f3xx_hal_dma.c ****   
 329              		.loc 1 219 3 is_stmt 1 view .LVU106
 219:Drivers/STM32F3xx_HAL_Driver/Src/stm32f3xx_hal_dma.c ****   
 330              		.loc 1 219 7 is_stmt 0 view .LVU107
 331 001a 0368     		ldr	r3, [r0]
 219:Drivers/STM32F3xx_HAL_Driver/Src/stm32f3xx_hal_dma.c ****   
 332              		.loc 1 219 25 view .LVU108
 333 001c 9D60     		str	r5, [r3, #8]
 222:Drivers/STM32F3xx_HAL_Driver/Src/stm32f3xx_hal_dma.c **** 
 334              		.loc 1 222 3 is_stmt 1 view .LVU109
 222:Drivers/STM32F3xx_HAL_Driver/Src/stm32f3xx_hal_dma.c **** 
 335              		.loc 1 222 7 is_stmt 0 view .LVU110
 336 001e 0368     		ldr	r3, [r0]
 222:Drivers/STM32F3xx_HAL_Driver/Src/stm32f3xx_hal_dma.c **** 
 337              		.loc 1 222 24 view .LVU111
 338 0020 DD60     		str	r5, [r3, #12]
 225:Drivers/STM32F3xx_HAL_Driver/Src/stm32f3xx_hal_dma.c **** 
 339              		.loc 1 225 3 is_stmt 1 view .LVU112
 340 0022 FFF7FEFF 		bl	DMA_CalcBaseAndBitshift
 341              	.LVL16:
 228:Drivers/STM32F3xx_HAL_Driver/Src/stm32f3xx_hal_dma.c **** 
 342              		.loc 1 228 3 view .LVU113
 228:Drivers/STM32F3xx_HAL_Driver/Src/stm32f3xx_hal_dma.c **** 
 343              		.loc 1 228 52 is_stmt 0 view .LVU114
 344 0026 216C     		ldr	r1, [r4, #64]
 228:Drivers/STM32F3xx_HAL_Driver/Src/stm32f3xx_hal_dma.c **** 
 345              		.loc 1 228 7 view .LVU115
 346 0028 E26B     		ldr	r2, [r4, #60]
 228:Drivers/STM32F3xx_HAL_Driver/Src/stm32f3xx_hal_dma.c **** 
 347              		.loc 1 228 45 view .LVU116
 348 002a 0123     		movs	r3, #1
 349 002c 8B40     		lsls	r3, r3, r1
 228:Drivers/STM32F3xx_HAL_Driver/Src/stm32f3xx_hal_dma.c **** 
 350              		.loc 1 228 30 view .LVU117
 351 002e 5360     		str	r3, [r2, #4]
 231:Drivers/STM32F3xx_HAL_Driver/Src/stm32f3xx_hal_dma.c ****   hdma->XferHalfCpltCallback = NULL;
 352              		.loc 1 231 3 is_stmt 1 view .LVU118
 231:Drivers/STM32F3xx_HAL_Driver/Src/stm32f3xx_hal_dma.c ****   hdma->XferHalfCpltCallback = NULL;
 353              		.loc 1 231 26 is_stmt 0 view .LVU119
 354 0030 A562     		str	r5, [r4, #40]
 232:Drivers/STM32F3xx_HAL_Driver/Src/stm32f3xx_hal_dma.c ****   hdma->XferErrorCallback = NULL;
ARM GAS  C:\Users\NICHOL~2\AppData\Local\Temp\ccYots5l.s 			page 24


 355              		.loc 1 232 3 is_stmt 1 view .LVU120
 232:Drivers/STM32F3xx_HAL_Driver/Src/stm32f3xx_hal_dma.c ****   hdma->XferErrorCallback = NULL;
 356              		.loc 1 232 30 is_stmt 0 view .LVU121
 357 0032 E562     		str	r5, [r4, #44]
 233:Drivers/STM32F3xx_HAL_Driver/Src/stm32f3xx_hal_dma.c ****   hdma->XferAbortCallback = NULL;
 358              		.loc 1 233 3 is_stmt 1 view .LVU122
 233:Drivers/STM32F3xx_HAL_Driver/Src/stm32f3xx_hal_dma.c ****   hdma->XferAbortCallback = NULL;
 359              		.loc 1 233 27 is_stmt 0 view .LVU123
 360 0034 2563     		str	r5, [r4, #48]
 234:Drivers/STM32F3xx_HAL_Driver/Src/stm32f3xx_hal_dma.c **** 
 361              		.loc 1 234 3 is_stmt 1 view .LVU124
 234:Drivers/STM32F3xx_HAL_Driver/Src/stm32f3xx_hal_dma.c **** 
 362              		.loc 1 234 27 is_stmt 0 view .LVU125
 363 0036 6563     		str	r5, [r4, #52]
 237:Drivers/STM32F3xx_HAL_Driver/Src/stm32f3xx_hal_dma.c **** 
 364              		.loc 1 237 3 is_stmt 1 view .LVU126
 237:Drivers/STM32F3xx_HAL_Driver/Src/stm32f3xx_hal_dma.c **** 
 365              		.loc 1 237 19 is_stmt 0 view .LVU127
 366 0038 A563     		str	r5, [r4, #56]
 240:Drivers/STM32F3xx_HAL_Driver/Src/stm32f3xx_hal_dma.c **** 
 367              		.loc 1 240 3 is_stmt 1 view .LVU128
 240:Drivers/STM32F3xx_HAL_Driver/Src/stm32f3xx_hal_dma.c **** 
 368              		.loc 1 240 15 is_stmt 0 view .LVU129
 369 003a 84F82150 		strb	r5, [r4, #33]
 243:Drivers/STM32F3xx_HAL_Driver/Src/stm32f3xx_hal_dma.c **** 
 370              		.loc 1 243 3 is_stmt 1 view .LVU130
 243:Drivers/STM32F3xx_HAL_Driver/Src/stm32f3xx_hal_dma.c **** 
 371              		.loc 1 243 3 view .LVU131
 372 003e 84F82050 		strb	r5, [r4, #32]
 243:Drivers/STM32F3xx_HAL_Driver/Src/stm32f3xx_hal_dma.c **** 
 373              		.loc 1 243 3 view .LVU132
 245:Drivers/STM32F3xx_HAL_Driver/Src/stm32f3xx_hal_dma.c **** }
 374              		.loc 1 245 3 view .LVU133
 245:Drivers/STM32F3xx_HAL_Driver/Src/stm32f3xx_hal_dma.c **** }
 375              		.loc 1 245 10 is_stmt 0 view .LVU134
 376 0042 2846     		mov	r0, r5
 246:Drivers/STM32F3xx_HAL_Driver/Src/stm32f3xx_hal_dma.c **** 
 377              		.loc 1 246 1 view .LVU135
 378 0044 38BD     		pop	{r3, r4, r5, pc}
 379              	.LVL17:
 380              	.L20:
 381              	.LCFI6:
 382              		.cfi_def_cfa_offset 0
 383              		.cfi_restore 3
 384              		.cfi_restore 4
 385              		.cfi_restore 5
 386              		.cfi_restore 14
 203:Drivers/STM32F3xx_HAL_Driver/Src/stm32f3xx_hal_dma.c ****   }
 387              		.loc 1 203 12 view .LVU136
 388 0046 0120     		movs	r0, #1
 389              	.LVL18:
 246:Drivers/STM32F3xx_HAL_Driver/Src/stm32f3xx_hal_dma.c **** 
 390              		.loc 1 246 1 view .LVU137
 391 0048 7047     		bx	lr
 392              		.cfi_endproc
 393              	.LFE131:
 395              		.section	.text.HAL_DMA_Start,"ax",%progbits
ARM GAS  C:\Users\NICHOL~2\AppData\Local\Temp\ccYots5l.s 			page 25


 396              		.align	1
 397              		.global	HAL_DMA_Start
 398              		.syntax unified
 399              		.thumb
 400              		.thumb_func
 402              	HAL_DMA_Start:
 403              	.LVL19:
 404              	.LFB132:
 281:Drivers/STM32F3xx_HAL_Driver/Src/stm32f3xx_hal_dma.c **** 	HAL_StatusTypeDef status = HAL_OK;
 405              		.loc 1 281 1 is_stmt 1 view -0
 406              		.cfi_startproc
 407              		@ args = 0, pretend = 0, frame = 0
 408              		@ frame_needed = 0, uses_anonymous_args = 0
 281:Drivers/STM32F3xx_HAL_Driver/Src/stm32f3xx_hal_dma.c **** 	HAL_StatusTypeDef status = HAL_OK;
 409              		.loc 1 281 1 is_stmt 0 view .LVU139
 410 0000 70B5     		push	{r4, r5, r6, lr}
 411              	.LCFI7:
 412              		.cfi_def_cfa_offset 16
 413              		.cfi_offset 4, -16
 414              		.cfi_offset 5, -12
 415              		.cfi_offset 6, -8
 416              		.cfi_offset 14, -4
 417 0002 0446     		mov	r4, r0
 282:Drivers/STM32F3xx_HAL_Driver/Src/stm32f3xx_hal_dma.c **** 
 418              		.loc 1 282 2 is_stmt 1 view .LVU140
 419              	.LVL20:
 285:Drivers/STM32F3xx_HAL_Driver/Src/stm32f3xx_hal_dma.c ****   
 420              		.loc 1 285 3 view .LVU141
 288:Drivers/STM32F3xx_HAL_Driver/Src/stm32f3xx_hal_dma.c ****   
 421              		.loc 1 288 3 view .LVU142
 288:Drivers/STM32F3xx_HAL_Driver/Src/stm32f3xx_hal_dma.c ****   
 422              		.loc 1 288 3 view .LVU143
 423 0004 90F82000 		ldrb	r0, [r0, #32]	@ zero_extendqisi2
 424              	.LVL21:
 288:Drivers/STM32F3xx_HAL_Driver/Src/stm32f3xx_hal_dma.c ****   
 425              		.loc 1 288 3 is_stmt 0 view .LVU144
 426 0008 0128     		cmp	r0, #1
 427 000a 1FD0     		beq	.L28
 288:Drivers/STM32F3xx_HAL_Driver/Src/stm32f3xx_hal_dma.c ****   
 428              		.loc 1 288 3 is_stmt 1 discriminator 2 view .LVU145
 429 000c 0120     		movs	r0, #1
 430 000e 84F82000 		strb	r0, [r4, #32]
 288:Drivers/STM32F3xx_HAL_Driver/Src/stm32f3xx_hal_dma.c ****   
 431              		.loc 1 288 3 discriminator 2 view .LVU146
 290:Drivers/STM32F3xx_HAL_Driver/Src/stm32f3xx_hal_dma.c ****   {
 432              		.loc 1 290 3 discriminator 2 view .LVU147
 290:Drivers/STM32F3xx_HAL_Driver/Src/stm32f3xx_hal_dma.c ****   {
 433              		.loc 1 290 33 is_stmt 0 discriminator 2 view .LVU148
 434 0012 94F82100 		ldrb	r0, [r4, #33]	@ zero_extendqisi2
 290:Drivers/STM32F3xx_HAL_Driver/Src/stm32f3xx_hal_dma.c ****   {
 435              		.loc 1 290 5 discriminator 2 view .LVU149
 436 0016 0128     		cmp	r0, #1
 437 0018 04D0     		beq	.L30
 309:Drivers/STM32F3xx_HAL_Driver/Src/stm32f3xx_hal_dma.c ****   	
 438              		.loc 1 309 4 is_stmt 1 view .LVU150
 309:Drivers/STM32F3xx_HAL_Driver/Src/stm32f3xx_hal_dma.c ****   	
 439              		.loc 1 309 4 view .LVU151
ARM GAS  C:\Users\NICHOL~2\AppData\Local\Temp\ccYots5l.s 			page 26


 440 001a 0023     		movs	r3, #0
 441              	.LVL22:
 309:Drivers/STM32F3xx_HAL_Driver/Src/stm32f3xx_hal_dma.c ****   	
 442              		.loc 1 309 4 is_stmt 0 view .LVU152
 443 001c 84F82030 		strb	r3, [r4, #32]
 309:Drivers/STM32F3xx_HAL_Driver/Src/stm32f3xx_hal_dma.c ****   	
 444              		.loc 1 309 4 is_stmt 1 view .LVU153
 312:Drivers/STM32F3xx_HAL_Driver/Src/stm32f3xx_hal_dma.c ****   }  
 445              		.loc 1 312 4 view .LVU154
 446              	.LVL23:
 312:Drivers/STM32F3xx_HAL_Driver/Src/stm32f3xx_hal_dma.c ****   }  
 447              		.loc 1 312 11 is_stmt 0 view .LVU155
 448 0020 0220     		movs	r0, #2
 449              	.LVL24:
 450              	.L26:
 316:Drivers/STM32F3xx_HAL_Driver/Src/stm32f3xx_hal_dma.c **** 
 451              		.loc 1 316 1 view .LVU156
 452 0022 70BD     		pop	{r4, r5, r6, pc}
 453              	.LVL25:
 454              	.L30:
 293:Drivers/STM32F3xx_HAL_Driver/Src/stm32f3xx_hal_dma.c ****   	
 455              		.loc 1 293 4 is_stmt 1 view .LVU157
 293:Drivers/STM32F3xx_HAL_Driver/Src/stm32f3xx_hal_dma.c ****   	
 456              		.loc 1 293 16 is_stmt 0 view .LVU158
 457 0024 0220     		movs	r0, #2
 458 0026 84F82100 		strb	r0, [r4, #33]
 295:Drivers/STM32F3xx_HAL_Driver/Src/stm32f3xx_hal_dma.c ****   	
 459              		.loc 1 295 4 is_stmt 1 view .LVU159
 295:Drivers/STM32F3xx_HAL_Driver/Src/stm32f3xx_hal_dma.c ****   	
 460              		.loc 1 295 20 is_stmt 0 view .LVU160
 461 002a 0025     		movs	r5, #0
 462 002c A563     		str	r5, [r4, #56]
 298:Drivers/STM32F3xx_HAL_Driver/Src/stm32f3xx_hal_dma.c ****   	
 463              		.loc 1 298 4 is_stmt 1 view .LVU161
 298:Drivers/STM32F3xx_HAL_Driver/Src/stm32f3xx_hal_dma.c ****   	
 464              		.loc 1 298 8 is_stmt 0 view .LVU162
 465 002e 2668     		ldr	r6, [r4]
 298:Drivers/STM32F3xx_HAL_Driver/Src/stm32f3xx_hal_dma.c ****   	
 466              		.loc 1 298 24 view .LVU163
 467 0030 3068     		ldr	r0, [r6]
 468 0032 20F00100 		bic	r0, r0, #1
 469 0036 3060     		str	r0, [r6]
 301:Drivers/STM32F3xx_HAL_Driver/Src/stm32f3xx_hal_dma.c ****   	
 470              		.loc 1 301 4 is_stmt 1 view .LVU164
 471 0038 2046     		mov	r0, r4
 472 003a FFF7FEFF 		bl	DMA_SetConfig
 473              	.LVL26:
 304:Drivers/STM32F3xx_HAL_Driver/Src/stm32f3xx_hal_dma.c ****   }
 474              		.loc 1 304 4 view .LVU165
 304:Drivers/STM32F3xx_HAL_Driver/Src/stm32f3xx_hal_dma.c ****   }
 475              		.loc 1 304 8 is_stmt 0 view .LVU166
 476 003e 2268     		ldr	r2, [r4]
 304:Drivers/STM32F3xx_HAL_Driver/Src/stm32f3xx_hal_dma.c ****   }
 477              		.loc 1 304 24 view .LVU167
 478 0040 1368     		ldr	r3, [r2]
 479 0042 43F00103 		orr	r3, r3, #1
 480 0046 1360     		str	r3, [r2]
ARM GAS  C:\Users\NICHOL~2\AppData\Local\Temp\ccYots5l.s 			page 27


 282:Drivers/STM32F3xx_HAL_Driver/Src/stm32f3xx_hal_dma.c **** 
 481              		.loc 1 282 20 view .LVU168
 482 0048 2846     		mov	r0, r5
 483 004a EAE7     		b	.L26
 484              	.LVL27:
 485              	.L28:
 288:Drivers/STM32F3xx_HAL_Driver/Src/stm32f3xx_hal_dma.c ****   
 486              		.loc 1 288 3 view .LVU169
 487 004c 0220     		movs	r0, #2
 488 004e E8E7     		b	.L26
 489              		.cfi_endproc
 490              	.LFE132:
 492              		.section	.text.HAL_DMA_Start_IT,"ax",%progbits
 493              		.align	1
 494              		.global	HAL_DMA_Start_IT
 495              		.syntax unified
 496              		.thumb
 497              		.thumb_func
 499              	HAL_DMA_Start_IT:
 500              	.LVL28:
 501              	.LFB133:
 328:Drivers/STM32F3xx_HAL_Driver/Src/stm32f3xx_hal_dma.c **** 	HAL_StatusTypeDef status = HAL_OK;
 502              		.loc 1 328 1 is_stmt 1 view -0
 503              		.cfi_startproc
 504              		@ args = 0, pretend = 0, frame = 0
 505              		@ frame_needed = 0, uses_anonymous_args = 0
 328:Drivers/STM32F3xx_HAL_Driver/Src/stm32f3xx_hal_dma.c **** 	HAL_StatusTypeDef status = HAL_OK;
 506              		.loc 1 328 1 is_stmt 0 view .LVU171
 507 0000 38B5     		push	{r3, r4, r5, lr}
 508              	.LCFI8:
 509              		.cfi_def_cfa_offset 16
 510              		.cfi_offset 3, -16
 511              		.cfi_offset 4, -12
 512              		.cfi_offset 5, -8
 513              		.cfi_offset 14, -4
 514 0002 0446     		mov	r4, r0
 329:Drivers/STM32F3xx_HAL_Driver/Src/stm32f3xx_hal_dma.c **** 
 515              		.loc 1 329 2 is_stmt 1 view .LVU172
 516              	.LVL29:
 332:Drivers/STM32F3xx_HAL_Driver/Src/stm32f3xx_hal_dma.c ****   
 517              		.loc 1 332 3 view .LVU173
 335:Drivers/STM32F3xx_HAL_Driver/Src/stm32f3xx_hal_dma.c ****   
 518              		.loc 1 335 3 view .LVU174
 335:Drivers/STM32F3xx_HAL_Driver/Src/stm32f3xx_hal_dma.c ****   
 519              		.loc 1 335 3 view .LVU175
 520 0004 90F82000 		ldrb	r0, [r0, #32]	@ zero_extendqisi2
 521              	.LVL30:
 335:Drivers/STM32F3xx_HAL_Driver/Src/stm32f3xx_hal_dma.c ****   
 522              		.loc 1 335 3 is_stmt 0 view .LVU176
 523 0008 0128     		cmp	r0, #1
 524 000a 31D0     		beq	.L36
 335:Drivers/STM32F3xx_HAL_Driver/Src/stm32f3xx_hal_dma.c ****   
 525              		.loc 1 335 3 is_stmt 1 discriminator 2 view .LVU177
 526 000c 0120     		movs	r0, #1
 527 000e 84F82000 		strb	r0, [r4, #32]
 335:Drivers/STM32F3xx_HAL_Driver/Src/stm32f3xx_hal_dma.c ****   
 528              		.loc 1 335 3 discriminator 2 view .LVU178
ARM GAS  C:\Users\NICHOL~2\AppData\Local\Temp\ccYots5l.s 			page 28


 337:Drivers/STM32F3xx_HAL_Driver/Src/stm32f3xx_hal_dma.c ****   {
 529              		.loc 1 337 3 discriminator 2 view .LVU179
 337:Drivers/STM32F3xx_HAL_Driver/Src/stm32f3xx_hal_dma.c ****   {
 530              		.loc 1 337 33 is_stmt 0 discriminator 2 view .LVU180
 531 0012 94F82100 		ldrb	r0, [r4, #33]	@ zero_extendqisi2
 337:Drivers/STM32F3xx_HAL_Driver/Src/stm32f3xx_hal_dma.c ****   {
 532              		.loc 1 337 5 discriminator 2 view .LVU181
 533 0016 0128     		cmp	r0, #1
 534 0018 04D0     		beq	.L38
 368:Drivers/STM32F3xx_HAL_Driver/Src/stm32f3xx_hal_dma.c ****   
 535              		.loc 1 368 5 is_stmt 1 view .LVU182
 368:Drivers/STM32F3xx_HAL_Driver/Src/stm32f3xx_hal_dma.c ****   
 536              		.loc 1 368 5 view .LVU183
 537 001a 0023     		movs	r3, #0
 538              	.LVL31:
 368:Drivers/STM32F3xx_HAL_Driver/Src/stm32f3xx_hal_dma.c ****   
 539              		.loc 1 368 5 is_stmt 0 view .LVU184
 540 001c 84F82030 		strb	r3, [r4, #32]
 368:Drivers/STM32F3xx_HAL_Driver/Src/stm32f3xx_hal_dma.c ****   
 541              		.loc 1 368 5 is_stmt 1 view .LVU185
 371:Drivers/STM32F3xx_HAL_Driver/Src/stm32f3xx_hal_dma.c ****   }     
 542              		.loc 1 371 5 view .LVU186
 543              	.LVL32:
 371:Drivers/STM32F3xx_HAL_Driver/Src/stm32f3xx_hal_dma.c ****   }     
 544              		.loc 1 371 12 is_stmt 0 view .LVU187
 545 0020 0220     		movs	r0, #2
 546              	.LVL33:
 547              	.L32:
 375:Drivers/STM32F3xx_HAL_Driver/Src/stm32f3xx_hal_dma.c **** 
 548              		.loc 1 375 1 view .LVU188
 549 0022 38BD     		pop	{r3, r4, r5, pc}
 550              	.LVL34:
 551              	.L38:
 340:Drivers/STM32F3xx_HAL_Driver/Src/stm32f3xx_hal_dma.c ****   	
 552              		.loc 1 340 4 is_stmt 1 view .LVU189
 340:Drivers/STM32F3xx_HAL_Driver/Src/stm32f3xx_hal_dma.c ****   	
 553              		.loc 1 340 16 is_stmt 0 view .LVU190
 554 0024 0220     		movs	r0, #2
 555 0026 84F82100 		strb	r0, [r4, #33]
 342:Drivers/STM32F3xx_HAL_Driver/Src/stm32f3xx_hal_dma.c ****   	
 556              		.loc 1 342 4 is_stmt 1 view .LVU191
 342:Drivers/STM32F3xx_HAL_Driver/Src/stm32f3xx_hal_dma.c ****   	
 557              		.loc 1 342 20 is_stmt 0 view .LVU192
 558 002a 0020     		movs	r0, #0
 559 002c A063     		str	r0, [r4, #56]
 345:Drivers/STM32F3xx_HAL_Driver/Src/stm32f3xx_hal_dma.c ****   	
 560              		.loc 1 345 4 is_stmt 1 view .LVU193
 345:Drivers/STM32F3xx_HAL_Driver/Src/stm32f3xx_hal_dma.c ****   	
 561              		.loc 1 345 8 is_stmt 0 view .LVU194
 562 002e 2568     		ldr	r5, [r4]
 345:Drivers/STM32F3xx_HAL_Driver/Src/stm32f3xx_hal_dma.c ****   	
 563              		.loc 1 345 24 view .LVU195
 564 0030 2868     		ldr	r0, [r5]
 565 0032 20F00100 		bic	r0, r0, #1
 566 0036 2860     		str	r0, [r5]
 348:Drivers/STM32F3xx_HAL_Driver/Src/stm32f3xx_hal_dma.c ****   	
 567              		.loc 1 348 4 is_stmt 1 view .LVU196
ARM GAS  C:\Users\NICHOL~2\AppData\Local\Temp\ccYots5l.s 			page 29


 568 0038 2046     		mov	r0, r4
 569 003a FFF7FEFF 		bl	DMA_SetConfig
 570              	.LVL35:
 352:Drivers/STM32F3xx_HAL_Driver/Src/stm32f3xx_hal_dma.c ****     {
 571              		.loc 1 352 5 view .LVU197
 352:Drivers/STM32F3xx_HAL_Driver/Src/stm32f3xx_hal_dma.c ****     {
 572              		.loc 1 352 20 is_stmt 0 view .LVU198
 573 003e E36A     		ldr	r3, [r4, #44]
 352:Drivers/STM32F3xx_HAL_Driver/Src/stm32f3xx_hal_dma.c ****     {
 574              		.loc 1 352 7 view .LVU199
 575 0040 5BB1     		cbz	r3, .L34
 354:Drivers/STM32F3xx_HAL_Driver/Src/stm32f3xx_hal_dma.c ****     }
 576              		.loc 1 354 7 is_stmt 1 view .LVU200
 354:Drivers/STM32F3xx_HAL_Driver/Src/stm32f3xx_hal_dma.c ****     }
 577              		.loc 1 354 11 is_stmt 0 view .LVU201
 578 0042 2268     		ldr	r2, [r4]
 354:Drivers/STM32F3xx_HAL_Driver/Src/stm32f3xx_hal_dma.c ****     }
 579              		.loc 1 354 27 view .LVU202
 580 0044 1368     		ldr	r3, [r2]
 581 0046 43F00E03 		orr	r3, r3, #14
 582 004a 1360     		str	r3, [r2]
 583              	.L35:
 363:Drivers/STM32F3xx_HAL_Driver/Src/stm32f3xx_hal_dma.c ****   }
 584              		.loc 1 363 4 is_stmt 1 view .LVU203
 363:Drivers/STM32F3xx_HAL_Driver/Src/stm32f3xx_hal_dma.c ****   }
 585              		.loc 1 363 8 is_stmt 0 view .LVU204
 586 004c 2268     		ldr	r2, [r4]
 363:Drivers/STM32F3xx_HAL_Driver/Src/stm32f3xx_hal_dma.c ****   }
 587              		.loc 1 363 24 view .LVU205
 588 004e 1368     		ldr	r3, [r2]
 589 0050 43F00103 		orr	r3, r3, #1
 590 0054 1360     		str	r3, [r2]
 329:Drivers/STM32F3xx_HAL_Driver/Src/stm32f3xx_hal_dma.c **** 
 591              		.loc 1 329 20 view .LVU206
 592 0056 0020     		movs	r0, #0
 593 0058 E3E7     		b	.L32
 594              	.L34:
 358:Drivers/STM32F3xx_HAL_Driver/Src/stm32f3xx_hal_dma.c ****   		hdma->Instance->CCR &= ~DMA_IT_HT;
 595              		.loc 1 358 5 is_stmt 1 view .LVU207
 358:Drivers/STM32F3xx_HAL_Driver/Src/stm32f3xx_hal_dma.c ****   		hdma->Instance->CCR &= ~DMA_IT_HT;
 596              		.loc 1 358 9 is_stmt 0 view .LVU208
 597 005a 2268     		ldr	r2, [r4]
 358:Drivers/STM32F3xx_HAL_Driver/Src/stm32f3xx_hal_dma.c ****   		hdma->Instance->CCR &= ~DMA_IT_HT;
 598              		.loc 1 358 25 view .LVU209
 599 005c 1368     		ldr	r3, [r2]
 600 005e 43F00A03 		orr	r3, r3, #10
 601 0062 1360     		str	r3, [r2]
 359:Drivers/STM32F3xx_HAL_Driver/Src/stm32f3xx_hal_dma.c ****   	}
 602              		.loc 1 359 5 is_stmt 1 view .LVU210
 359:Drivers/STM32F3xx_HAL_Driver/Src/stm32f3xx_hal_dma.c ****   	}
 603              		.loc 1 359 9 is_stmt 0 view .LVU211
 604 0064 2268     		ldr	r2, [r4]
 359:Drivers/STM32F3xx_HAL_Driver/Src/stm32f3xx_hal_dma.c ****   	}
 605              		.loc 1 359 25 view .LVU212
 606 0066 1368     		ldr	r3, [r2]
 607 0068 23F00403 		bic	r3, r3, #4
 608 006c 1360     		str	r3, [r2]
ARM GAS  C:\Users\NICHOL~2\AppData\Local\Temp\ccYots5l.s 			page 30


 609 006e EDE7     		b	.L35
 610              	.LVL36:
 611              	.L36:
 335:Drivers/STM32F3xx_HAL_Driver/Src/stm32f3xx_hal_dma.c ****   
 612              		.loc 1 335 3 view .LVU213
 613 0070 0220     		movs	r0, #2
 614 0072 D6E7     		b	.L32
 615              		.cfi_endproc
 616              	.LFE133:
 618              		.section	.text.HAL_DMA_Abort,"ax",%progbits
 619              		.align	1
 620              		.global	HAL_DMA_Abort
 621              		.syntax unified
 622              		.thumb
 623              		.thumb_func
 625              	HAL_DMA_Abort:
 626              	.LVL37:
 627              	.LFB134:
 384:Drivers/STM32F3xx_HAL_Driver/Src/stm32f3xx_hal_dma.c ****   if(hdma->State != HAL_DMA_STATE_BUSY)
 628              		.loc 1 384 1 is_stmt 1 view -0
 629              		.cfi_startproc
 630              		@ args = 0, pretend = 0, frame = 0
 631              		@ frame_needed = 0, uses_anonymous_args = 0
 632              		@ link register save eliminated.
 385:Drivers/STM32F3xx_HAL_Driver/Src/stm32f3xx_hal_dma.c ****   {
 633              		.loc 1 385 3 view .LVU215
 385:Drivers/STM32F3xx_HAL_Driver/Src/stm32f3xx_hal_dma.c ****   {
 634              		.loc 1 385 10 is_stmt 0 view .LVU216
 635 0000 90F82130 		ldrb	r3, [r0, #33]	@ zero_extendqisi2
 385:Drivers/STM32F3xx_HAL_Driver/Src/stm32f3xx_hal_dma.c ****   {
 636              		.loc 1 385 5 view .LVU217
 637 0004 022B     		cmp	r3, #2
 638 0006 06D0     		beq	.L40
 388:Drivers/STM32F3xx_HAL_Driver/Src/stm32f3xx_hal_dma.c ****     
 639              		.loc 1 388 5 is_stmt 1 view .LVU218
 388:Drivers/STM32F3xx_HAL_Driver/Src/stm32f3xx_hal_dma.c ****     
 640              		.loc 1 388 21 is_stmt 0 view .LVU219
 641 0008 0423     		movs	r3, #4
 642 000a 8363     		str	r3, [r0, #56]
 391:Drivers/STM32F3xx_HAL_Driver/Src/stm32f3xx_hal_dma.c ****     
 643              		.loc 1 391 5 is_stmt 1 view .LVU220
 391:Drivers/STM32F3xx_HAL_Driver/Src/stm32f3xx_hal_dma.c ****     
 644              		.loc 1 391 5 view .LVU221
 645 000c 0023     		movs	r3, #0
 646 000e 80F82030 		strb	r3, [r0, #32]
 391:Drivers/STM32F3xx_HAL_Driver/Src/stm32f3xx_hal_dma.c ****     
 647              		.loc 1 391 5 view .LVU222
 393:Drivers/STM32F3xx_HAL_Driver/Src/stm32f3xx_hal_dma.c ****   }
 648              		.loc 1 393 5 view .LVU223
 393:Drivers/STM32F3xx_HAL_Driver/Src/stm32f3xx_hal_dma.c ****   }
 649              		.loc 1 393 12 is_stmt 0 view .LVU224
 650 0012 0120     		movs	r0, #1
 651              	.LVL38:
 393:Drivers/STM32F3xx_HAL_Driver/Src/stm32f3xx_hal_dma.c ****   }
 652              		.loc 1 393 12 view .LVU225
 653 0014 7047     		bx	lr
 654              	.LVL39:
ARM GAS  C:\Users\NICHOL~2\AppData\Local\Temp\ccYots5l.s 			page 31


 655              	.L40:
 398:Drivers/STM32F3xx_HAL_Driver/Src/stm32f3xx_hal_dma.c ****     
 656              		.loc 1 398 6 is_stmt 1 view .LVU226
 398:Drivers/STM32F3xx_HAL_Driver/Src/stm32f3xx_hal_dma.c ****     
 657              		.loc 1 398 10 is_stmt 0 view .LVU227
 658 0016 0268     		ldr	r2, [r0]
 398:Drivers/STM32F3xx_HAL_Driver/Src/stm32f3xx_hal_dma.c ****     
 659              		.loc 1 398 26 view .LVU228
 660 0018 1368     		ldr	r3, [r2]
 661 001a 23F00E03 		bic	r3, r3, #14
 662 001e 1360     		str	r3, [r2]
 401:Drivers/STM32F3xx_HAL_Driver/Src/stm32f3xx_hal_dma.c ****     
 663              		.loc 1 401 5 is_stmt 1 view .LVU229
 401:Drivers/STM32F3xx_HAL_Driver/Src/stm32f3xx_hal_dma.c ****     
 664              		.loc 1 401 9 is_stmt 0 view .LVU230
 665 0020 0268     		ldr	r2, [r0]
 401:Drivers/STM32F3xx_HAL_Driver/Src/stm32f3xx_hal_dma.c ****     
 666              		.loc 1 401 25 view .LVU231
 667 0022 1368     		ldr	r3, [r2]
 668 0024 23F00103 		bic	r3, r3, #1
 669 0028 1360     		str	r3, [r2]
 404:Drivers/STM32F3xx_HAL_Driver/Src/stm32f3xx_hal_dma.c ****   }
 670              		.loc 1 404 5 is_stmt 1 view .LVU232
 404:Drivers/STM32F3xx_HAL_Driver/Src/stm32f3xx_hal_dma.c ****   }
 671              		.loc 1 404 55 is_stmt 0 view .LVU233
 672 002a 036C     		ldr	r3, [r0, #64]
 404:Drivers/STM32F3xx_HAL_Driver/Src/stm32f3xx_hal_dma.c ****   }
 673              		.loc 1 404 9 view .LVU234
 674 002c C16B     		ldr	r1, [r0, #60]
 404:Drivers/STM32F3xx_HAL_Driver/Src/stm32f3xx_hal_dma.c ****   }
 675              		.loc 1 404 48 view .LVU235
 676 002e 0122     		movs	r2, #1
 677 0030 02FA03F3 		lsl	r3, r2, r3
 404:Drivers/STM32F3xx_HAL_Driver/Src/stm32f3xx_hal_dma.c ****   }
 678              		.loc 1 404 32 view .LVU236
 679 0034 4B60     		str	r3, [r1, #4]
 407:Drivers/STM32F3xx_HAL_Driver/Src/stm32f3xx_hal_dma.c ****   
 680              		.loc 1 407 3 is_stmt 1 view .LVU237
 407:Drivers/STM32F3xx_HAL_Driver/Src/stm32f3xx_hal_dma.c ****   
 681              		.loc 1 407 15 is_stmt 0 view .LVU238
 682 0036 80F82120 		strb	r2, [r0, #33]
 410:Drivers/STM32F3xx_HAL_Driver/Src/stm32f3xx_hal_dma.c ****   
 683              		.loc 1 410 3 is_stmt 1 view .LVU239
 410:Drivers/STM32F3xx_HAL_Driver/Src/stm32f3xx_hal_dma.c ****   
 684              		.loc 1 410 3 view .LVU240
 685 003a 0023     		movs	r3, #0
 686 003c 80F82030 		strb	r3, [r0, #32]
 410:Drivers/STM32F3xx_HAL_Driver/Src/stm32f3xx_hal_dma.c ****   
 687              		.loc 1 410 3 view .LVU241
 412:Drivers/STM32F3xx_HAL_Driver/Src/stm32f3xx_hal_dma.c **** }
 688              		.loc 1 412 3 view .LVU242
 412:Drivers/STM32F3xx_HAL_Driver/Src/stm32f3xx_hal_dma.c **** }
 689              		.loc 1 412 10 is_stmt 0 view .LVU243
 690 0040 1846     		mov	r0, r3
 691              	.LVL40:
 413:Drivers/STM32F3xx_HAL_Driver/Src/stm32f3xx_hal_dma.c **** 
 692              		.loc 1 413 1 view .LVU244
ARM GAS  C:\Users\NICHOL~2\AppData\Local\Temp\ccYots5l.s 			page 32


 693 0042 7047     		bx	lr
 694              		.cfi_endproc
 695              	.LFE134:
 697              		.section	.text.HAL_DMA_Abort_IT,"ax",%progbits
 698              		.align	1
 699              		.global	HAL_DMA_Abort_IT
 700              		.syntax unified
 701              		.thumb
 702              		.thumb_func
 704              	HAL_DMA_Abort_IT:
 705              	.LVL41:
 706              	.LFB135:
 422:Drivers/STM32F3xx_HAL_Driver/Src/stm32f3xx_hal_dma.c ****   HAL_StatusTypeDef status = HAL_OK;
 707              		.loc 1 422 1 is_stmt 1 view -0
 708              		.cfi_startproc
 709              		@ args = 0, pretend = 0, frame = 0
 710              		@ frame_needed = 0, uses_anonymous_args = 0
 422:Drivers/STM32F3xx_HAL_Driver/Src/stm32f3xx_hal_dma.c ****   HAL_StatusTypeDef status = HAL_OK;
 711              		.loc 1 422 1 is_stmt 0 view .LVU246
 712 0000 08B5     		push	{r3, lr}
 713              	.LCFI9:
 714              		.cfi_def_cfa_offset 8
 715              		.cfi_offset 3, -8
 716              		.cfi_offset 14, -4
 423:Drivers/STM32F3xx_HAL_Driver/Src/stm32f3xx_hal_dma.c ****   
 717              		.loc 1 423 3 is_stmt 1 view .LVU247
 718              	.LVL42:
 425:Drivers/STM32F3xx_HAL_Driver/Src/stm32f3xx_hal_dma.c ****   {
 719              		.loc 1 425 3 view .LVU248
 425:Drivers/STM32F3xx_HAL_Driver/Src/stm32f3xx_hal_dma.c ****   {
 720              		.loc 1 425 32 is_stmt 0 view .LVU249
 721 0002 90F82130 		ldrb	r3, [r0, #33]	@ zero_extendqisi2
 425:Drivers/STM32F3xx_HAL_Driver/Src/stm32f3xx_hal_dma.c ****   {
 722              		.loc 1 425 5 view .LVU250
 723 0006 022B     		cmp	r3, #2
 724 0008 03D0     		beq	.L43
 428:Drivers/STM32F3xx_HAL_Driver/Src/stm32f3xx_hal_dma.c ****         
 725              		.loc 1 428 5 is_stmt 1 view .LVU251
 428:Drivers/STM32F3xx_HAL_Driver/Src/stm32f3xx_hal_dma.c ****         
 726              		.loc 1 428 21 is_stmt 0 view .LVU252
 727 000a 0423     		movs	r3, #4
 728 000c 8363     		str	r3, [r0, #56]
 430:Drivers/STM32F3xx_HAL_Driver/Src/stm32f3xx_hal_dma.c ****   }
 729              		.loc 1 430 5 is_stmt 1 view .LVU253
 730              	.LVL43:
 430:Drivers/STM32F3xx_HAL_Driver/Src/stm32f3xx_hal_dma.c ****   }
 731              		.loc 1 430 12 is_stmt 0 view .LVU254
 732 000e 0120     		movs	r0, #1
 733              	.LVL44:
 734              	.L44:
 456:Drivers/STM32F3xx_HAL_Driver/Src/stm32f3xx_hal_dma.c **** }
 735              		.loc 1 456 3 is_stmt 1 view .LVU255
 457:Drivers/STM32F3xx_HAL_Driver/Src/stm32f3xx_hal_dma.c **** 
 736              		.loc 1 457 1 is_stmt 0 view .LVU256
 737 0010 08BD     		pop	{r3, pc}
 738              	.LVL45:
 739              	.L43:
ARM GAS  C:\Users\NICHOL~2\AppData\Local\Temp\ccYots5l.s 			page 33


 436:Drivers/STM32F3xx_HAL_Driver/Src/stm32f3xx_hal_dma.c ****     
 740              		.loc 1 436 5 is_stmt 1 view .LVU257
 436:Drivers/STM32F3xx_HAL_Driver/Src/stm32f3xx_hal_dma.c ****     
 741              		.loc 1 436 9 is_stmt 0 view .LVU258
 742 0012 0268     		ldr	r2, [r0]
 436:Drivers/STM32F3xx_HAL_Driver/Src/stm32f3xx_hal_dma.c ****     
 743              		.loc 1 436 25 view .LVU259
 744 0014 1368     		ldr	r3, [r2]
 745 0016 23F00E03 		bic	r3, r3, #14
 746 001a 1360     		str	r3, [r2]
 439:Drivers/STM32F3xx_HAL_Driver/Src/stm32f3xx_hal_dma.c ****     
 747              		.loc 1 439 5 is_stmt 1 view .LVU260
 439:Drivers/STM32F3xx_HAL_Driver/Src/stm32f3xx_hal_dma.c ****     
 748              		.loc 1 439 9 is_stmt 0 view .LVU261
 749 001c 0268     		ldr	r2, [r0]
 439:Drivers/STM32F3xx_HAL_Driver/Src/stm32f3xx_hal_dma.c ****     
 750              		.loc 1 439 25 view .LVU262
 751 001e 1368     		ldr	r3, [r2]
 752 0020 23F00103 		bic	r3, r3, #1
 753 0024 1360     		str	r3, [r2]
 442:Drivers/STM32F3xx_HAL_Driver/Src/stm32f3xx_hal_dma.c ****     
 754              		.loc 1 442 5 is_stmt 1 view .LVU263
 442:Drivers/STM32F3xx_HAL_Driver/Src/stm32f3xx_hal_dma.c ****     
 755              		.loc 1 442 54 is_stmt 0 view .LVU264
 756 0026 036C     		ldr	r3, [r0, #64]
 442:Drivers/STM32F3xx_HAL_Driver/Src/stm32f3xx_hal_dma.c ****     
 757              		.loc 1 442 9 view .LVU265
 758 0028 C16B     		ldr	r1, [r0, #60]
 442:Drivers/STM32F3xx_HAL_Driver/Src/stm32f3xx_hal_dma.c ****     
 759              		.loc 1 442 47 view .LVU266
 760 002a 0122     		movs	r2, #1
 761 002c 02FA03F3 		lsl	r3, r2, r3
 442:Drivers/STM32F3xx_HAL_Driver/Src/stm32f3xx_hal_dma.c ****     
 762              		.loc 1 442 32 view .LVU267
 763 0030 4B60     		str	r3, [r1, #4]
 445:Drivers/STM32F3xx_HAL_Driver/Src/stm32f3xx_hal_dma.c ****     
 764              		.loc 1 445 5 is_stmt 1 view .LVU268
 445:Drivers/STM32F3xx_HAL_Driver/Src/stm32f3xx_hal_dma.c ****     
 765              		.loc 1 445 17 is_stmt 0 view .LVU269
 766 0032 80F82120 		strb	r2, [r0, #33]
 448:Drivers/STM32F3xx_HAL_Driver/Src/stm32f3xx_hal_dma.c ****     
 767              		.loc 1 448 5 is_stmt 1 view .LVU270
 448:Drivers/STM32F3xx_HAL_Driver/Src/stm32f3xx_hal_dma.c ****     
 768              		.loc 1 448 5 view .LVU271
 769 0036 0023     		movs	r3, #0
 770 0038 80F82030 		strb	r3, [r0, #32]
 448:Drivers/STM32F3xx_HAL_Driver/Src/stm32f3xx_hal_dma.c ****     
 771              		.loc 1 448 5 view .LVU272
 451:Drivers/STM32F3xx_HAL_Driver/Src/stm32f3xx_hal_dma.c ****     {
 772              		.loc 1 451 5 view .LVU273
 451:Drivers/STM32F3xx_HAL_Driver/Src/stm32f3xx_hal_dma.c ****     {
 773              		.loc 1 451 12 is_stmt 0 view .LVU274
 774 003c 436B     		ldr	r3, [r0, #52]
 451:Drivers/STM32F3xx_HAL_Driver/Src/stm32f3xx_hal_dma.c ****     {
 775              		.loc 1 451 7 view .LVU275
 776 003e 13B1     		cbz	r3, .L45
 453:Drivers/STM32F3xx_HAL_Driver/Src/stm32f3xx_hal_dma.c ****     } 
ARM GAS  C:\Users\NICHOL~2\AppData\Local\Temp\ccYots5l.s 			page 34


 777              		.loc 1 453 7 is_stmt 1 view .LVU276
 778 0040 9847     		blx	r3
 779              	.LVL46:
 423:Drivers/STM32F3xx_HAL_Driver/Src/stm32f3xx_hal_dma.c ****   
 780              		.loc 1 423 21 is_stmt 0 view .LVU277
 781 0042 0020     		movs	r0, #0
 782 0044 E4E7     		b	.L44
 783              	.LVL47:
 784              	.L45:
 423:Drivers/STM32F3xx_HAL_Driver/Src/stm32f3xx_hal_dma.c ****   
 785              		.loc 1 423 21 view .LVU278
 786 0046 0020     		movs	r0, #0
 787              	.LVL48:
 423:Drivers/STM32F3xx_HAL_Driver/Src/stm32f3xx_hal_dma.c ****   
 788              		.loc 1 423 21 view .LVU279
 789 0048 E2E7     		b	.L44
 790              		.cfi_endproc
 791              	.LFE135:
 793              		.section	.text.HAL_DMA_PollForTransfer,"ax",%progbits
 794              		.align	1
 795              		.global	HAL_DMA_PollForTransfer
 796              		.syntax unified
 797              		.thumb
 798              		.thumb_func
 800              	HAL_DMA_PollForTransfer:
 801              	.LVL49:
 802              	.LFB136:
 468:Drivers/STM32F3xx_HAL_Driver/Src/stm32f3xx_hal_dma.c ****   uint32_t temp;
 803              		.loc 1 468 1 is_stmt 1 view -0
 804              		.cfi_startproc
 805              		@ args = 0, pretend = 0, frame = 0
 806              		@ frame_needed = 0, uses_anonymous_args = 0
 468:Drivers/STM32F3xx_HAL_Driver/Src/stm32f3xx_hal_dma.c ****   uint32_t temp;
 807              		.loc 1 468 1 is_stmt 0 view .LVU281
 808 0000 2DE9F843 		push	{r3, r4, r5, r6, r7, r8, r9, lr}
 809              	.LCFI10:
 810              		.cfi_def_cfa_offset 32
 811              		.cfi_offset 3, -32
 812              		.cfi_offset 4, -28
 813              		.cfi_offset 5, -24
 814              		.cfi_offset 6, -20
 815              		.cfi_offset 7, -16
 816              		.cfi_offset 8, -12
 817              		.cfi_offset 9, -8
 818              		.cfi_offset 14, -4
 819 0004 0446     		mov	r4, r0
 469:Drivers/STM32F3xx_HAL_Driver/Src/stm32f3xx_hal_dma.c ****   uint32_t tickstart = 0U;
 820              		.loc 1 469 3 is_stmt 1 view .LVU282
 470:Drivers/STM32F3xx_HAL_Driver/Src/stm32f3xx_hal_dma.c ****   
 821              		.loc 1 470 3 view .LVU283
 822              	.LVL50:
 472:Drivers/STM32F3xx_HAL_Driver/Src/stm32f3xx_hal_dma.c ****   {
 823              		.loc 1 472 3 view .LVU284
 472:Drivers/STM32F3xx_HAL_Driver/Src/stm32f3xx_hal_dma.c ****   {
 824              		.loc 1 472 32 is_stmt 0 view .LVU285
 825 0006 90F82130 		ldrb	r3, [r0, #33]	@ zero_extendqisi2
 472:Drivers/STM32F3xx_HAL_Driver/Src/stm32f3xx_hal_dma.c ****   {
ARM GAS  C:\Users\NICHOL~2\AppData\Local\Temp\ccYots5l.s 			page 35


 826              		.loc 1 472 5 view .LVU286
 827 000a 022B     		cmp	r3, #2
 828 000c 07D0     		beq	.L48
 475:Drivers/STM32F3xx_HAL_Driver/Src/stm32f3xx_hal_dma.c ****     __HAL_UNLOCK(hdma);
 829              		.loc 1 475 5 is_stmt 1 view .LVU287
 475:Drivers/STM32F3xx_HAL_Driver/Src/stm32f3xx_hal_dma.c ****     __HAL_UNLOCK(hdma);
 830              		.loc 1 475 21 is_stmt 0 view .LVU288
 831 000e 0423     		movs	r3, #4
 832 0010 8363     		str	r3, [r0, #56]
 476:Drivers/STM32F3xx_HAL_Driver/Src/stm32f3xx_hal_dma.c ****     return HAL_ERROR;
 833              		.loc 1 476 5 is_stmt 1 view .LVU289
 476:Drivers/STM32F3xx_HAL_Driver/Src/stm32f3xx_hal_dma.c ****     return HAL_ERROR;
 834              		.loc 1 476 5 view .LVU290
 835 0012 0023     		movs	r3, #0
 836 0014 80F82030 		strb	r3, [r0, #32]
 476:Drivers/STM32F3xx_HAL_Driver/Src/stm32f3xx_hal_dma.c ****     return HAL_ERROR;
 837              		.loc 1 476 5 view .LVU291
 477:Drivers/STM32F3xx_HAL_Driver/Src/stm32f3xx_hal_dma.c ****   }
 838              		.loc 1 477 5 view .LVU292
 477:Drivers/STM32F3xx_HAL_Driver/Src/stm32f3xx_hal_dma.c ****   }
 839              		.loc 1 477 12 is_stmt 0 view .LVU293
 840 0018 0120     		movs	r0, #1
 841              	.LVL51:
 842              	.L49:
 560:Drivers/STM32F3xx_HAL_Driver/Src/stm32f3xx_hal_dma.c **** 
 843              		.loc 1 560 1 view .LVU294
 844 001a BDE8F883 		pop	{r3, r4, r5, r6, r7, r8, r9, pc}
 845              	.LVL52:
 846              	.L48:
 560:Drivers/STM32F3xx_HAL_Driver/Src/stm32f3xx_hal_dma.c **** 
 847              		.loc 1 560 1 view .LVU295
 848 001e 8846     		mov	r8, r1
 849 0020 1646     		mov	r6, r2
 481:Drivers/STM32F3xx_HAL_Driver/Src/stm32f3xx_hal_dma.c ****   {
 850              		.loc 1 481 3 is_stmt 1 view .LVU296
 481:Drivers/STM32F3xx_HAL_Driver/Src/stm32f3xx_hal_dma.c ****   {
 851              		.loc 1 481 21 is_stmt 0 view .LVU297
 852 0022 0368     		ldr	r3, [r0]
 481:Drivers/STM32F3xx_HAL_Driver/Src/stm32f3xx_hal_dma.c ****   {
 853              		.loc 1 481 31 view .LVU298
 854 0024 1B68     		ldr	r3, [r3]
 481:Drivers/STM32F3xx_HAL_Driver/Src/stm32f3xx_hal_dma.c ****   {
 855              		.loc 1 481 6 view .LVU299
 856 0026 13F0200F 		tst	r3, #32
 857 002a 23D1     		bne	.L61
 488:Drivers/STM32F3xx_HAL_Driver/Src/stm32f3xx_hal_dma.c ****   {
 858              		.loc 1 488 3 is_stmt 1 view .LVU300
 488:Drivers/STM32F3xx_HAL_Driver/Src/stm32f3xx_hal_dma.c ****   {
 859              		.loc 1 488 5 is_stmt 0 view .LVU301
 860 002c 39BB     		cbnz	r1, .L51
 491:Drivers/STM32F3xx_HAL_Driver/Src/stm32f3xx_hal_dma.c ****   }
 861              		.loc 1 491 5 is_stmt 1 view .LVU302
 491:Drivers/STM32F3xx_HAL_Driver/Src/stm32f3xx_hal_dma.c ****   }
 862              		.loc 1 491 32 is_stmt 0 view .LVU303
 863 002e 036C     		ldr	r3, [r0, #64]
 491:Drivers/STM32F3xx_HAL_Driver/Src/stm32f3xx_hal_dma.c ****   }
 864              		.loc 1 491 10 view .LVU304
ARM GAS  C:\Users\NICHOL~2\AppData\Local\Temp\ccYots5l.s 			page 36


 865 0030 0227     		movs	r7, #2
 866 0032 9F40     		lsls	r7, r7, r3
 867              	.LVL53:
 868              	.L52:
 500:Drivers/STM32F3xx_HAL_Driver/Src/stm32f3xx_hal_dma.c **** 
 869              		.loc 1 500 3 is_stmt 1 view .LVU305
 500:Drivers/STM32F3xx_HAL_Driver/Src/stm32f3xx_hal_dma.c **** 
 870              		.loc 1 500 15 is_stmt 0 view .LVU306
 871 0034 FFF7FEFF 		bl	HAL_GetTick
 872              	.LVL54:
 500:Drivers/STM32F3xx_HAL_Driver/Src/stm32f3xx_hal_dma.c **** 
 873              		.loc 1 500 15 view .LVU307
 874 0038 8146     		mov	r9, r0
 875              	.LVL55:
 502:Drivers/STM32F3xx_HAL_Driver/Src/stm32f3xx_hal_dma.c ****   {
 876              		.loc 1 502 3 is_stmt 1 view .LVU308
 877              	.L55:
 502:Drivers/STM32F3xx_HAL_Driver/Src/stm32f3xx_hal_dma.c ****   {
 878              		.loc 1 502 8 view .LVU309
 502:Drivers/STM32F3xx_HAL_Driver/Src/stm32f3xx_hal_dma.c ****   {
 879              		.loc 1 502 23 is_stmt 0 view .LVU310
 880 003a E56B     		ldr	r5, [r4, #60]
 502:Drivers/STM32F3xx_HAL_Driver/Src/stm32f3xx_hal_dma.c ****   {
 881              		.loc 1 502 39 view .LVU311
 882 003c 2B68     		ldr	r3, [r5]
 502:Drivers/STM32F3xx_HAL_Driver/Src/stm32f3xx_hal_dma.c ****   {
 883              		.loc 1 502 8 view .LVU312
 884 003e 3B42     		tst	r3, r7
 885 0040 2CD1     		bne	.L62
 504:Drivers/STM32F3xx_HAL_Driver/Src/stm32f3xx_hal_dma.c ****     {      
 886              		.loc 1 504 5 is_stmt 1 view .LVU313
 504:Drivers/STM32F3xx_HAL_Driver/Src/stm32f3xx_hal_dma.c ****     {      
 887              		.loc 1 504 38 is_stmt 0 view .LVU314
 888 0042 2968     		ldr	r1, [r5]
 504:Drivers/STM32F3xx_HAL_Driver/Src/stm32f3xx_hal_dma.c ****     {      
 889              		.loc 1 504 67 view .LVU315
 890 0044 226C     		ldr	r2, [r4, #64]
 504:Drivers/STM32F3xx_HAL_Driver/Src/stm32f3xx_hal_dma.c ****     {      
 891              		.loc 1 504 60 view .LVU316
 892 0046 0823     		movs	r3, #8
 893 0048 9340     		lsls	r3, r3, r2
 504:Drivers/STM32F3xx_HAL_Driver/Src/stm32f3xx_hal_dma.c ****     {      
 894              		.loc 1 504 7 view .LVU317
 895 004a 1942     		tst	r1, r3
 896 004c 1BD1     		bne	.L63
 523:Drivers/STM32F3xx_HAL_Driver/Src/stm32f3xx_hal_dma.c ****     {
 897              		.loc 1 523 5 is_stmt 1 view .LVU318
 523:Drivers/STM32F3xx_HAL_Driver/Src/stm32f3xx_hal_dma.c ****     {
 898              		.loc 1 523 7 is_stmt 0 view .LVU319
 899 004e B6F1FF3F 		cmp	r6, #-1
 900 0052 F2D0     		beq	.L55
 525:Drivers/STM32F3xx_HAL_Driver/Src/stm32f3xx_hal_dma.c ****       {
 901              		.loc 1 525 7 is_stmt 1 view .LVU320
 525:Drivers/STM32F3xx_HAL_Driver/Src/stm32f3xx_hal_dma.c ****       {
 902              		.loc 1 525 9 is_stmt 0 view .LVU321
 903 0054 2EB1     		cbz	r6, .L56
 525:Drivers/STM32F3xx_HAL_Driver/Src/stm32f3xx_hal_dma.c ****       {
ARM GAS  C:\Users\NICHOL~2\AppData\Local\Temp\ccYots5l.s 			page 37


 904              		.loc 1 525 31 discriminator 1 view .LVU322
 905 0056 FFF7FEFF 		bl	HAL_GetTick
 906              	.LVL56:
 525:Drivers/STM32F3xx_HAL_Driver/Src/stm32f3xx_hal_dma.c ****       {
 907              		.loc 1 525 45 discriminator 1 view .LVU323
 908 005a A0EB0900 		sub	r0, r0, r9
 525:Drivers/STM32F3xx_HAL_Driver/Src/stm32f3xx_hal_dma.c ****       {
 909              		.loc 1 525 26 discriminator 1 view .LVU324
 910 005e B042     		cmp	r0, r6
 911 0060 EBD9     		bls	.L55
 912              	.L56:
 528:Drivers/STM32F3xx_HAL_Driver/Src/stm32f3xx_hal_dma.c ****         
 913              		.loc 1 528 9 is_stmt 1 view .LVU325
 528:Drivers/STM32F3xx_HAL_Driver/Src/stm32f3xx_hal_dma.c ****         
 914              		.loc 1 528 25 is_stmt 0 view .LVU326
 915 0062 2023     		movs	r3, #32
 916 0064 A363     		str	r3, [r4, #56]
 531:Drivers/STM32F3xx_HAL_Driver/Src/stm32f3xx_hal_dma.c **** 
 917              		.loc 1 531 9 is_stmt 1 view .LVU327
 531:Drivers/STM32F3xx_HAL_Driver/Src/stm32f3xx_hal_dma.c **** 
 918              		.loc 1 531 21 is_stmt 0 view .LVU328
 919 0066 0120     		movs	r0, #1
 920 0068 84F82100 		strb	r0, [r4, #33]
 534:Drivers/STM32F3xx_HAL_Driver/Src/stm32f3xx_hal_dma.c **** 
 921              		.loc 1 534 9 is_stmt 1 view .LVU329
 534:Drivers/STM32F3xx_HAL_Driver/Src/stm32f3xx_hal_dma.c **** 
 922              		.loc 1 534 9 view .LVU330
 923 006c 0023     		movs	r3, #0
 924 006e 84F82030 		strb	r3, [r4, #32]
 534:Drivers/STM32F3xx_HAL_Driver/Src/stm32f3xx_hal_dma.c **** 
 925              		.loc 1 534 9 view .LVU331
 536:Drivers/STM32F3xx_HAL_Driver/Src/stm32f3xx_hal_dma.c ****       }
 926              		.loc 1 536 9 view .LVU332
 536:Drivers/STM32F3xx_HAL_Driver/Src/stm32f3xx_hal_dma.c ****       }
 927              		.loc 1 536 16 is_stmt 0 view .LVU333
 928 0072 D2E7     		b	.L49
 929              	.LVL57:
 930              	.L61:
 483:Drivers/STM32F3xx_HAL_Driver/Src/stm32f3xx_hal_dma.c ****     return HAL_ERROR;
 931              		.loc 1 483 5 is_stmt 1 view .LVU334
 483:Drivers/STM32F3xx_HAL_Driver/Src/stm32f3xx_hal_dma.c ****     return HAL_ERROR;
 932              		.loc 1 483 21 is_stmt 0 view .LVU335
 933 0074 4FF48073 		mov	r3, #256
 934 0078 8363     		str	r3, [r0, #56]
 484:Drivers/STM32F3xx_HAL_Driver/Src/stm32f3xx_hal_dma.c ****   }
 935              		.loc 1 484 5 is_stmt 1 view .LVU336
 484:Drivers/STM32F3xx_HAL_Driver/Src/stm32f3xx_hal_dma.c ****   }
 936              		.loc 1 484 12 is_stmt 0 view .LVU337
 937 007a 0120     		movs	r0, #1
 938              	.LVL58:
 484:Drivers/STM32F3xx_HAL_Driver/Src/stm32f3xx_hal_dma.c ****   }
 939              		.loc 1 484 12 view .LVU338
 940 007c CDE7     		b	.L49
 941              	.LVL59:
 942              	.L51:
 496:Drivers/STM32F3xx_HAL_Driver/Src/stm32f3xx_hal_dma.c ****   }
 943              		.loc 1 496 5 is_stmt 1 view .LVU339
ARM GAS  C:\Users\NICHOL~2\AppData\Local\Temp\ccYots5l.s 			page 38


 496:Drivers/STM32F3xx_HAL_Driver/Src/stm32f3xx_hal_dma.c ****   }
 944              		.loc 1 496 32 is_stmt 0 view .LVU340
 945 007e 036C     		ldr	r3, [r0, #64]
 496:Drivers/STM32F3xx_HAL_Driver/Src/stm32f3xx_hal_dma.c ****   }
 946              		.loc 1 496 10 view .LVU341
 947 0080 0427     		movs	r7, #4
 948 0082 9F40     		lsls	r7, r7, r3
 949              	.LVL60:
 496:Drivers/STM32F3xx_HAL_Driver/Src/stm32f3xx_hal_dma.c ****   }
 950              		.loc 1 496 10 view .LVU342
 951 0084 D6E7     		b	.L52
 952              	.LVL61:
 953              	.L63:
 509:Drivers/STM32F3xx_HAL_Driver/Src/stm32f3xx_hal_dma.c ****       
 954              		.loc 1 509 7 is_stmt 1 view .LVU343
 509:Drivers/STM32F3xx_HAL_Driver/Src/stm32f3xx_hal_dma.c ****       
 955              		.loc 1 509 49 is_stmt 0 view .LVU344
 956 0086 0120     		movs	r0, #1
 957 0088 00FA02F2 		lsl	r2, r0, r2
 509:Drivers/STM32F3xx_HAL_Driver/Src/stm32f3xx_hal_dma.c ****       
 958              		.loc 1 509 34 view .LVU345
 959 008c 6A60     		str	r2, [r5, #4]
 512:Drivers/STM32F3xx_HAL_Driver/Src/stm32f3xx_hal_dma.c **** 
 960              		.loc 1 512 7 is_stmt 1 view .LVU346
 512:Drivers/STM32F3xx_HAL_Driver/Src/stm32f3xx_hal_dma.c **** 
 961              		.loc 1 512 23 is_stmt 0 view .LVU347
 962 008e A063     		str	r0, [r4, #56]
 515:Drivers/STM32F3xx_HAL_Driver/Src/stm32f3xx_hal_dma.c ****       
 963              		.loc 1 515 7 is_stmt 1 view .LVU348
 515:Drivers/STM32F3xx_HAL_Driver/Src/stm32f3xx_hal_dma.c ****       
 964              		.loc 1 515 18 is_stmt 0 view .LVU349
 965 0090 84F82100 		strb	r0, [r4, #33]
 518:Drivers/STM32F3xx_HAL_Driver/Src/stm32f3xx_hal_dma.c ****       
 966              		.loc 1 518 7 is_stmt 1 view .LVU350
 518:Drivers/STM32F3xx_HAL_Driver/Src/stm32f3xx_hal_dma.c ****       
 967              		.loc 1 518 7 view .LVU351
 968 0094 0023     		movs	r3, #0
 969 0096 84F82030 		strb	r3, [r4, #32]
 518:Drivers/STM32F3xx_HAL_Driver/Src/stm32f3xx_hal_dma.c ****       
 970              		.loc 1 518 7 view .LVU352
 520:Drivers/STM32F3xx_HAL_Driver/Src/stm32f3xx_hal_dma.c ****     }      
 971              		.loc 1 520 7 view .LVU353
 520:Drivers/STM32F3xx_HAL_Driver/Src/stm32f3xx_hal_dma.c ****     }      
 972              		.loc 1 520 14 is_stmt 0 view .LVU354
 973 009a BEE7     		b	.L49
 974              	.L62:
 541:Drivers/STM32F3xx_HAL_Driver/Src/stm32f3xx_hal_dma.c ****   {
 975              		.loc 1 541 3 is_stmt 1 view .LVU355
 541:Drivers/STM32F3xx_HAL_Driver/Src/stm32f3xx_hal_dma.c ****   {
 976              		.loc 1 541 5 is_stmt 0 view .LVU356
 977 009c B8F1000F 		cmp	r8, #0
 978 00a0 0AD1     		bne	.L58
 544:Drivers/STM32F3xx_HAL_Driver/Src/stm32f3xx_hal_dma.c **** 
 979              		.loc 1 544 5 is_stmt 1 view .LVU357
 544:Drivers/STM32F3xx_HAL_Driver/Src/stm32f3xx_hal_dma.c **** 
 980              		.loc 1 544 54 is_stmt 0 view .LVU358
 981 00a2 226C     		ldr	r2, [r4, #64]
ARM GAS  C:\Users\NICHOL~2\AppData\Local\Temp\ccYots5l.s 			page 39


 544:Drivers/STM32F3xx_HAL_Driver/Src/stm32f3xx_hal_dma.c **** 
 982              		.loc 1 544 47 view .LVU359
 983 00a4 0223     		movs	r3, #2
 984 00a6 9340     		lsls	r3, r3, r2
 544:Drivers/STM32F3xx_HAL_Driver/Src/stm32f3xx_hal_dma.c **** 
 985              		.loc 1 544 32 view .LVU360
 986 00a8 6B60     		str	r3, [r5, #4]
 548:Drivers/STM32F3xx_HAL_Driver/Src/stm32f3xx_hal_dma.c ****   }
 987              		.loc 1 548 5 is_stmt 1 view .LVU361
 548:Drivers/STM32F3xx_HAL_Driver/Src/stm32f3xx_hal_dma.c ****   }
 988              		.loc 1 548 17 is_stmt 0 view .LVU362
 989 00aa 0123     		movs	r3, #1
 990 00ac 84F82130 		strb	r3, [r4, #33]
 991              	.L59:
 557:Drivers/STM32F3xx_HAL_Driver/Src/stm32f3xx_hal_dma.c **** 
 992              		.loc 1 557 3 is_stmt 1 view .LVU363
 557:Drivers/STM32F3xx_HAL_Driver/Src/stm32f3xx_hal_dma.c **** 
 993              		.loc 1 557 3 view .LVU364
 994 00b0 0020     		movs	r0, #0
 995 00b2 84F82000 		strb	r0, [r4, #32]
 557:Drivers/STM32F3xx_HAL_Driver/Src/stm32f3xx_hal_dma.c **** 
 996              		.loc 1 557 3 view .LVU365
 559:Drivers/STM32F3xx_HAL_Driver/Src/stm32f3xx_hal_dma.c **** }
 997              		.loc 1 559 3 view .LVU366
 559:Drivers/STM32F3xx_HAL_Driver/Src/stm32f3xx_hal_dma.c **** }
 998              		.loc 1 559 10 is_stmt 0 view .LVU367
 999 00b6 B0E7     		b	.L49
 1000              	.L58:
 553:Drivers/STM32F3xx_HAL_Driver/Src/stm32f3xx_hal_dma.c ****   }
 1001              		.loc 1 553 5 is_stmt 1 view .LVU368
 553:Drivers/STM32F3xx_HAL_Driver/Src/stm32f3xx_hal_dma.c ****   }
 1002              		.loc 1 553 54 is_stmt 0 view .LVU369
 1003 00b8 226C     		ldr	r2, [r4, #64]
 553:Drivers/STM32F3xx_HAL_Driver/Src/stm32f3xx_hal_dma.c ****   }
 1004              		.loc 1 553 47 view .LVU370
 1005 00ba 0423     		movs	r3, #4
 1006 00bc 9340     		lsls	r3, r3, r2
 553:Drivers/STM32F3xx_HAL_Driver/Src/stm32f3xx_hal_dma.c ****   }
 1007              		.loc 1 553 32 view .LVU371
 1008 00be 6B60     		str	r3, [r5, #4]
 1009 00c0 F6E7     		b	.L59
 1010              		.cfi_endproc
 1011              	.LFE136:
 1013              		.section	.text.HAL_DMA_IRQHandler,"ax",%progbits
 1014              		.align	1
 1015              		.global	HAL_DMA_IRQHandler
 1016              		.syntax unified
 1017              		.thumb
 1018              		.thumb_func
 1020              	HAL_DMA_IRQHandler:
 1021              	.LVL62:
 1022              	.LFB137:
 569:Drivers/STM32F3xx_HAL_Driver/Src/stm32f3xx_hal_dma.c **** 	uint32_t flag_it = hdma->DmaBaseAddress->ISR;
 1023              		.loc 1 569 1 is_stmt 1 view -0
 1024              		.cfi_startproc
 1025              		@ args = 0, pretend = 0, frame = 0
 1026              		@ frame_needed = 0, uses_anonymous_args = 0
ARM GAS  C:\Users\NICHOL~2\AppData\Local\Temp\ccYots5l.s 			page 40


 569:Drivers/STM32F3xx_HAL_Driver/Src/stm32f3xx_hal_dma.c **** 	uint32_t flag_it = hdma->DmaBaseAddress->ISR;
 1027              		.loc 1 569 1 is_stmt 0 view .LVU373
 1028 0000 38B5     		push	{r3, r4, r5, lr}
 1029              	.LCFI11:
 1030              		.cfi_def_cfa_offset 16
 1031              		.cfi_offset 3, -16
 1032              		.cfi_offset 4, -12
 1033              		.cfi_offset 5, -8
 1034              		.cfi_offset 14, -4
 570:Drivers/STM32F3xx_HAL_Driver/Src/stm32f3xx_hal_dma.c ****   uint32_t source_it = hdma->Instance->CCR;
 1035              		.loc 1 570 2 is_stmt 1 view .LVU374
 570:Drivers/STM32F3xx_HAL_Driver/Src/stm32f3xx_hal_dma.c ****   uint32_t source_it = hdma->Instance->CCR;
 1036              		.loc 1 570 25 is_stmt 0 view .LVU375
 1037 0002 C36B     		ldr	r3, [r0, #60]
 570:Drivers/STM32F3xx_HAL_Driver/Src/stm32f3xx_hal_dma.c ****   uint32_t source_it = hdma->Instance->CCR;
 1038              		.loc 1 570 11 view .LVU376
 1039 0004 1A68     		ldr	r2, [r3]
 1040              	.LVL63:
 571:Drivers/STM32F3xx_HAL_Driver/Src/stm32f3xx_hal_dma.c ****           
 1041              		.loc 1 571 3 is_stmt 1 view .LVU377
 571:Drivers/STM32F3xx_HAL_Driver/Src/stm32f3xx_hal_dma.c ****           
 1042              		.loc 1 571 28 is_stmt 0 view .LVU378
 1043 0006 0468     		ldr	r4, [r0]
 571:Drivers/STM32F3xx_HAL_Driver/Src/stm32f3xx_hal_dma.c ****           
 1044              		.loc 1 571 12 view .LVU379
 1045 0008 2568     		ldr	r5, [r4]
 1046              	.LVL64:
 574:Drivers/STM32F3xx_HAL_Driver/Src/stm32f3xx_hal_dma.c ****   {
 1047              		.loc 1 574 3 is_stmt 1 view .LVU380
 574:Drivers/STM32F3xx_HAL_Driver/Src/stm32f3xx_hal_dma.c ****   {
 1048              		.loc 1 574 49 is_stmt 0 view .LVU381
 1049 000a 016C     		ldr	r1, [r0, #64]
 574:Drivers/STM32F3xx_HAL_Driver/Src/stm32f3xx_hal_dma.c ****   {
 1050              		.loc 1 574 42 view .LVU382
 1051 000c 0423     		movs	r3, #4
 1052 000e 8B40     		lsls	r3, r3, r1
 574:Drivers/STM32F3xx_HAL_Driver/Src/stm32f3xx_hal_dma.c ****   {
 1053              		.loc 1 574 6 view .LVU383
 1054 0010 1342     		tst	r3, r2
 1055 0012 13D0     		beq	.L65
 574:Drivers/STM32F3xx_HAL_Driver/Src/stm32f3xx_hal_dma.c ****   {
 1056              		.loc 1 574 67 discriminator 1 view .LVU384
 1057 0014 15F0040F 		tst	r5, #4
 1058 0018 10D0     		beq	.L65
 577:Drivers/STM32F3xx_HAL_Driver/Src/stm32f3xx_hal_dma.c ****   	{
 1059              		.loc 1 577 4 is_stmt 1 view .LVU385
 577:Drivers/STM32F3xx_HAL_Driver/Src/stm32f3xx_hal_dma.c ****   	{
 1060              		.loc 1 577 22 is_stmt 0 view .LVU386
 1061 001a 2368     		ldr	r3, [r4]
 577:Drivers/STM32F3xx_HAL_Driver/Src/stm32f3xx_hal_dma.c ****   	{
 1062              		.loc 1 577 6 view .LVU387
 1063 001c 13F0200F 		tst	r3, #32
 1064 0020 03D1     		bne	.L66
 580:Drivers/STM32F3xx_HAL_Driver/Src/stm32f3xx_hal_dma.c ****   	}
 1065              		.loc 1 580 5 is_stmt 1 view .LVU388
 580:Drivers/STM32F3xx_HAL_Driver/Src/stm32f3xx_hal_dma.c ****   	}
 1066              		.loc 1 580 25 is_stmt 0 view .LVU389
ARM GAS  C:\Users\NICHOL~2\AppData\Local\Temp\ccYots5l.s 			page 41


 1067 0022 2368     		ldr	r3, [r4]
 1068 0024 23F00403 		bic	r3, r3, #4
 1069 0028 2360     		str	r3, [r4]
 1070              	.L66:
 584:Drivers/STM32F3xx_HAL_Driver/Src/stm32f3xx_hal_dma.c ****   	
 1071              		.loc 1 584 4 is_stmt 1 view .LVU390
 584:Drivers/STM32F3xx_HAL_Driver/Src/stm32f3xx_hal_dma.c ****   	
 1072              		.loc 1 584 53 is_stmt 0 view .LVU391
 1073 002a 016C     		ldr	r1, [r0, #64]
 584:Drivers/STM32F3xx_HAL_Driver/Src/stm32f3xx_hal_dma.c ****   	
 1074              		.loc 1 584 8 view .LVU392
 1075 002c C26B     		ldr	r2, [r0, #60]
 1076              	.LVL65:
 584:Drivers/STM32F3xx_HAL_Driver/Src/stm32f3xx_hal_dma.c ****   	
 1077              		.loc 1 584 46 view .LVU393
 1078 002e 0423     		movs	r3, #4
 1079 0030 8B40     		lsls	r3, r3, r1
 584:Drivers/STM32F3xx_HAL_Driver/Src/stm32f3xx_hal_dma.c ****   	
 1080              		.loc 1 584 31 view .LVU394
 1081 0032 5360     		str	r3, [r2, #4]
 589:Drivers/STM32F3xx_HAL_Driver/Src/stm32f3xx_hal_dma.c ****   	{
 1082              		.loc 1 589 4 is_stmt 1 view .LVU395
 589:Drivers/STM32F3xx_HAL_Driver/Src/stm32f3xx_hal_dma.c ****   	{
 1083              		.loc 1 589 11 is_stmt 0 view .LVU396
 1084 0034 C36A     		ldr	r3, [r0, #44]
 589:Drivers/STM32F3xx_HAL_Driver/Src/stm32f3xx_hal_dma.c ****   	{
 1085              		.loc 1 589 6 view .LVU397
 1086 0036 03B1     		cbz	r3, .L64
 592:Drivers/STM32F3xx_HAL_Driver/Src/stm32f3xx_hal_dma.c ****   	}
 1087              		.loc 1 592 5 is_stmt 1 view .LVU398
 1088 0038 9847     		blx	r3
 1089              	.LVL66:
 1090              	.L64:
 648:Drivers/STM32F3xx_HAL_Driver/Src/stm32f3xx_hal_dma.c **** 
 1091              		.loc 1 648 1 is_stmt 0 view .LVU399
 1092 003a 38BD     		pop	{r3, r4, r5, pc}
 1093              	.LVL67:
 1094              	.L65:
 597:Drivers/STM32F3xx_HAL_Driver/Src/stm32f3xx_hal_dma.c ****   {
 1095              		.loc 1 597 8 is_stmt 1 view .LVU400
 597:Drivers/STM32F3xx_HAL_Driver/Src/stm32f3xx_hal_dma.c ****   {
 1096              		.loc 1 597 47 is_stmt 0 view .LVU401
 1097 003c 0223     		movs	r3, #2
 1098 003e 8B40     		lsls	r3, r3, r1
 597:Drivers/STM32F3xx_HAL_Driver/Src/stm32f3xx_hal_dma.c ****   {
 1099              		.loc 1 597 11 view .LVU402
 1100 0040 1342     		tst	r3, r2
 1101 0042 1AD0     		beq	.L68
 597:Drivers/STM32F3xx_HAL_Driver/Src/stm32f3xx_hal_dma.c ****   {
 1102              		.loc 1 597 72 discriminator 1 view .LVU403
 1103 0044 15F0020F 		tst	r5, #2
 1104 0048 17D0     		beq	.L68
 599:Drivers/STM32F3xx_HAL_Driver/Src/stm32f3xx_hal_dma.c ****   	{
 1105              		.loc 1 599 4 is_stmt 1 view .LVU404
 599:Drivers/STM32F3xx_HAL_Driver/Src/stm32f3xx_hal_dma.c ****   	{
 1106              		.loc 1 599 22 is_stmt 0 view .LVU405
 1107 004a 2368     		ldr	r3, [r4]
ARM GAS  C:\Users\NICHOL~2\AppData\Local\Temp\ccYots5l.s 			page 42


 599:Drivers/STM32F3xx_HAL_Driver/Src/stm32f3xx_hal_dma.c ****   	{
 1108              		.loc 1 599 6 view .LVU406
 1109 004c 13F0200F 		tst	r3, #32
 1110 0050 06D1     		bne	.L69
 603:Drivers/STM32F3xx_HAL_Driver/Src/stm32f3xx_hal_dma.c ****   		
 1111              		.loc 1 603 5 is_stmt 1 view .LVU407
 603:Drivers/STM32F3xx_HAL_Driver/Src/stm32f3xx_hal_dma.c ****   		
 1112              		.loc 1 603 25 is_stmt 0 view .LVU408
 1113 0052 2368     		ldr	r3, [r4]
 1114 0054 23F00A03 		bic	r3, r3, #10
 1115 0058 2360     		str	r3, [r4]
 606:Drivers/STM32F3xx_HAL_Driver/Src/stm32f3xx_hal_dma.c ****   	}
 1116              		.loc 1 606 5 is_stmt 1 view .LVU409
 606:Drivers/STM32F3xx_HAL_Driver/Src/stm32f3xx_hal_dma.c ****   	}
 1117              		.loc 1 606 17 is_stmt 0 view .LVU410
 1118 005a 0123     		movs	r3, #1
 1119 005c 80F82130 		strb	r3, [r0, #33]
 1120              	.L69:
 610:Drivers/STM32F3xx_HAL_Driver/Src/stm32f3xx_hal_dma.c ****   	
 1121              		.loc 1 610 4 is_stmt 1 view .LVU411
 610:Drivers/STM32F3xx_HAL_Driver/Src/stm32f3xx_hal_dma.c ****   	
 1122              		.loc 1 610 53 is_stmt 0 view .LVU412
 1123 0060 016C     		ldr	r1, [r0, #64]
 610:Drivers/STM32F3xx_HAL_Driver/Src/stm32f3xx_hal_dma.c ****   	
 1124              		.loc 1 610 8 view .LVU413
 1125 0062 C26B     		ldr	r2, [r0, #60]
 1126              	.LVL68:
 610:Drivers/STM32F3xx_HAL_Driver/Src/stm32f3xx_hal_dma.c ****   	
 1127              		.loc 1 610 46 view .LVU414
 1128 0064 0223     		movs	r3, #2
 1129 0066 8B40     		lsls	r3, r3, r1
 610:Drivers/STM32F3xx_HAL_Driver/Src/stm32f3xx_hal_dma.c ****   	
 1130              		.loc 1 610 31 view .LVU415
 1131 0068 5360     		str	r3, [r2, #4]
 613:Drivers/STM32F3xx_HAL_Driver/Src/stm32f3xx_hal_dma.c ****   	
 1132              		.loc 1 613 4 is_stmt 1 view .LVU416
 613:Drivers/STM32F3xx_HAL_Driver/Src/stm32f3xx_hal_dma.c ****   	
 1133              		.loc 1 613 4 view .LVU417
 1134 006a 0023     		movs	r3, #0
 1135 006c 80F82030 		strb	r3, [r0, #32]
 613:Drivers/STM32F3xx_HAL_Driver/Src/stm32f3xx_hal_dma.c ****   	
 1136              		.loc 1 613 4 view .LVU418
 615:Drivers/STM32F3xx_HAL_Driver/Src/stm32f3xx_hal_dma.c ****   	{
 1137              		.loc 1 615 4 view .LVU419
 615:Drivers/STM32F3xx_HAL_Driver/Src/stm32f3xx_hal_dma.c ****   	{
 1138              		.loc 1 615 11 is_stmt 0 view .LVU420
 1139 0070 836A     		ldr	r3, [r0, #40]
 615:Drivers/STM32F3xx_HAL_Driver/Src/stm32f3xx_hal_dma.c ****   	{
 1140              		.loc 1 615 6 view .LVU421
 1141 0072 002B     		cmp	r3, #0
 1142 0074 E1D0     		beq	.L64
 618:Drivers/STM32F3xx_HAL_Driver/Src/stm32f3xx_hal_dma.c ****   	}
 1143              		.loc 1 618 5 is_stmt 1 view .LVU422
 1144 0076 9847     		blx	r3
 1145              	.LVL69:
 618:Drivers/STM32F3xx_HAL_Driver/Src/stm32f3xx_hal_dma.c ****   	}
 1146              		.loc 1 618 5 is_stmt 0 view .LVU423
ARM GAS  C:\Users\NICHOL~2\AppData\Local\Temp\ccYots5l.s 			page 43


 1147 0078 DFE7     		b	.L64
 1148              	.LVL70:
 1149              	.L68:
 623:Drivers/STM32F3xx_HAL_Driver/Src/stm32f3xx_hal_dma.c ****   {
 1150              		.loc 1 623 8 is_stmt 1 view .LVU424
 623:Drivers/STM32F3xx_HAL_Driver/Src/stm32f3xx_hal_dma.c ****   {
 1151              		.loc 1 623 48 is_stmt 0 view .LVU425
 1152 007a 0823     		movs	r3, #8
 1153 007c 03FA01F1 		lsl	r1, r3, r1
 623:Drivers/STM32F3xx_HAL_Driver/Src/stm32f3xx_hal_dma.c ****   {
 1154              		.loc 1 623 11 view .LVU426
 1155 0080 1142     		tst	r1, r2
 1156 0082 DAD0     		beq	.L64
 623:Drivers/STM32F3xx_HAL_Driver/Src/stm32f3xx_hal_dma.c ****   {
 1157              		.loc 1 623 73 discriminator 1 view .LVU427
 1158 0084 15F0080F 		tst	r5, #8
 1159 0088 D7D0     		beq	.L64
 628:Drivers/STM32F3xx_HAL_Driver/Src/stm32f3xx_hal_dma.c ****     
 1160              		.loc 1 628 5 is_stmt 1 view .LVU428
 628:Drivers/STM32F3xx_HAL_Driver/Src/stm32f3xx_hal_dma.c ****     
 1161              		.loc 1 628 25 is_stmt 0 view .LVU429
 1162 008a 2368     		ldr	r3, [r4]
 1163 008c 23F00E03 		bic	r3, r3, #14
 1164 0090 2360     		str	r3, [r4]
 631:Drivers/STM32F3xx_HAL_Driver/Src/stm32f3xx_hal_dma.c ****     
 1165              		.loc 1 631 5 is_stmt 1 view .LVU430
 631:Drivers/STM32F3xx_HAL_Driver/Src/stm32f3xx_hal_dma.c ****     
 1166              		.loc 1 631 54 is_stmt 0 view .LVU431
 1167 0092 026C     		ldr	r2, [r0, #64]
 1168              	.LVL71:
 631:Drivers/STM32F3xx_HAL_Driver/Src/stm32f3xx_hal_dma.c ****     
 1169              		.loc 1 631 9 view .LVU432
 1170 0094 C16B     		ldr	r1, [r0, #60]
 631:Drivers/STM32F3xx_HAL_Driver/Src/stm32f3xx_hal_dma.c ****     
 1171              		.loc 1 631 47 view .LVU433
 1172 0096 0123     		movs	r3, #1
 1173 0098 03FA02F2 		lsl	r2, r3, r2
 631:Drivers/STM32F3xx_HAL_Driver/Src/stm32f3xx_hal_dma.c ****     
 1174              		.loc 1 631 32 view .LVU434
 1175 009c 4A60     		str	r2, [r1, #4]
 634:Drivers/STM32F3xx_HAL_Driver/Src/stm32f3xx_hal_dma.c ****     
 1176              		.loc 1 634 5 is_stmt 1 view .LVU435
 634:Drivers/STM32F3xx_HAL_Driver/Src/stm32f3xx_hal_dma.c ****     
 1177              		.loc 1 634 21 is_stmt 0 view .LVU436
 1178 009e 8363     		str	r3, [r0, #56]
 637:Drivers/STM32F3xx_HAL_Driver/Src/stm32f3xx_hal_dma.c ****     
 1179              		.loc 1 637 5 is_stmt 1 view .LVU437
 637:Drivers/STM32F3xx_HAL_Driver/Src/stm32f3xx_hal_dma.c ****     
 1180              		.loc 1 637 17 is_stmt 0 view .LVU438
 1181 00a0 80F82130 		strb	r3, [r0, #33]
 640:Drivers/STM32F3xx_HAL_Driver/Src/stm32f3xx_hal_dma.c ****     
 1182              		.loc 1 640 5 is_stmt 1 view .LVU439
 640:Drivers/STM32F3xx_HAL_Driver/Src/stm32f3xx_hal_dma.c ****     
 1183              		.loc 1 640 5 view .LVU440
 1184 00a4 0023     		movs	r3, #0
 1185 00a6 80F82030 		strb	r3, [r0, #32]
 640:Drivers/STM32F3xx_HAL_Driver/Src/stm32f3xx_hal_dma.c ****     
ARM GAS  C:\Users\NICHOL~2\AppData\Local\Temp\ccYots5l.s 			page 44


 1186              		.loc 1 640 5 view .LVU441
 642:Drivers/STM32F3xx_HAL_Driver/Src/stm32f3xx_hal_dma.c ****     {
 1187              		.loc 1 642 5 view .LVU442
 642:Drivers/STM32F3xx_HAL_Driver/Src/stm32f3xx_hal_dma.c ****     {
 1188              		.loc 1 642 12 is_stmt 0 view .LVU443
 1189 00aa 036B     		ldr	r3, [r0, #48]
 642:Drivers/STM32F3xx_HAL_Driver/Src/stm32f3xx_hal_dma.c ****     {
 1190              		.loc 1 642 7 view .LVU444
 1191 00ac 002B     		cmp	r3, #0
 1192 00ae C4D0     		beq	.L64
 645:Drivers/STM32F3xx_HAL_Driver/Src/stm32f3xx_hal_dma.c ****     }
 1193              		.loc 1 645 6 is_stmt 1 view .LVU445
 1194 00b0 9847     		blx	r3
 1195              	.LVL72:
 648:Drivers/STM32F3xx_HAL_Driver/Src/stm32f3xx_hal_dma.c **** 
 1196              		.loc 1 648 1 is_stmt 0 view .LVU446
 1197 00b2 C2E7     		b	.L64
 1198              		.cfi_endproc
 1199              	.LFE137:
 1201              		.section	.text.HAL_DMA_RegisterCallback,"ax",%progbits
 1202              		.align	1
 1203              		.global	HAL_DMA_RegisterCallback
 1204              		.syntax unified
 1205              		.thumb
 1206              		.thumb_func
 1208              	HAL_DMA_RegisterCallback:
 1209              	.LVL73:
 1210              	.LFB138:
 661:Drivers/STM32F3xx_HAL_Driver/Src/stm32f3xx_hal_dma.c ****   HAL_StatusTypeDef status = HAL_OK;
 1211              		.loc 1 661 1 is_stmt 1 view -0
 1212              		.cfi_startproc
 1213              		@ args = 0, pretend = 0, frame = 0
 1214              		@ frame_needed = 0, uses_anonymous_args = 0
 1215              		@ link register save eliminated.
 661:Drivers/STM32F3xx_HAL_Driver/Src/stm32f3xx_hal_dma.c ****   HAL_StatusTypeDef status = HAL_OK;
 1216              		.loc 1 661 1 is_stmt 0 view .LVU448
 1217 0000 0346     		mov	r3, r0
 662:Drivers/STM32F3xx_HAL_Driver/Src/stm32f3xx_hal_dma.c ****   
 1218              		.loc 1 662 3 is_stmt 1 view .LVU449
 1219              	.LVL74:
 665:Drivers/STM32F3xx_HAL_Driver/Src/stm32f3xx_hal_dma.c ****   
 1220              		.loc 1 665 3 view .LVU450
 665:Drivers/STM32F3xx_HAL_Driver/Src/stm32f3xx_hal_dma.c ****   
 1221              		.loc 1 665 3 view .LVU451
 1222 0002 90F82000 		ldrb	r0, [r0, #32]	@ zero_extendqisi2
 1223              	.LVL75:
 665:Drivers/STM32F3xx_HAL_Driver/Src/stm32f3xx_hal_dma.c ****   
 1224              		.loc 1 665 3 is_stmt 0 view .LVU452
 1225 0006 0128     		cmp	r0, #1
 1226 0008 1DD0     		beq	.L79
 665:Drivers/STM32F3xx_HAL_Driver/Src/stm32f3xx_hal_dma.c ****   
 1227              		.loc 1 665 3 is_stmt 1 discriminator 2 view .LVU453
 1228 000a 0120     		movs	r0, #1
 1229 000c 83F82000 		strb	r0, [r3, #32]
 665:Drivers/STM32F3xx_HAL_Driver/Src/stm32f3xx_hal_dma.c ****   
 1230              		.loc 1 665 3 discriminator 2 view .LVU454
 667:Drivers/STM32F3xx_HAL_Driver/Src/stm32f3xx_hal_dma.c ****   {
ARM GAS  C:\Users\NICHOL~2\AppData\Local\Temp\ccYots5l.s 			page 45


 1231              		.loc 1 667 3 discriminator 2 view .LVU455
 667:Drivers/STM32F3xx_HAL_Driver/Src/stm32f3xx_hal_dma.c ****   {
 1232              		.loc 1 667 33 is_stmt 0 discriminator 2 view .LVU456
 1233 0010 93F82100 		ldrb	r0, [r3, #33]	@ zero_extendqisi2
 667:Drivers/STM32F3xx_HAL_Driver/Src/stm32f3xx_hal_dma.c ****   {
 1234              		.loc 1 667 5 discriminator 2 view .LVU457
 1235 0014 0128     		cmp	r0, #1
 1236 0016 04D0     		beq	.L81
 694:Drivers/STM32F3xx_HAL_Driver/Src/stm32f3xx_hal_dma.c ****   } 
 1237              		.loc 1 694 12 view .LVU458
 1238 0018 0120     		movs	r0, #1
 1239              	.L73:
 1240              	.LVL76:
 698:Drivers/STM32F3xx_HAL_Driver/Src/stm32f3xx_hal_dma.c ****   
 1241              		.loc 1 698 3 is_stmt 1 view .LVU459
 698:Drivers/STM32F3xx_HAL_Driver/Src/stm32f3xx_hal_dma.c ****   
 1242              		.loc 1 698 3 view .LVU460
 1243 001a 0022     		movs	r2, #0
 1244              	.LVL77:
 698:Drivers/STM32F3xx_HAL_Driver/Src/stm32f3xx_hal_dma.c ****   
 1245              		.loc 1 698 3 is_stmt 0 view .LVU461
 1246 001c 83F82020 		strb	r2, [r3, #32]
 698:Drivers/STM32F3xx_HAL_Driver/Src/stm32f3xx_hal_dma.c ****   
 1247              		.loc 1 698 3 is_stmt 1 view .LVU462
 700:Drivers/STM32F3xx_HAL_Driver/Src/stm32f3xx_hal_dma.c **** }
 1248              		.loc 1 700 3 view .LVU463
 700:Drivers/STM32F3xx_HAL_Driver/Src/stm32f3xx_hal_dma.c **** }
 1249              		.loc 1 700 10 is_stmt 0 view .LVU464
 1250 0020 7047     		bx	lr
 1251              	.LVL78:
 1252              	.L81:
 669:Drivers/STM32F3xx_HAL_Driver/Src/stm32f3xx_hal_dma.c ****     {
 1253              		.loc 1 669 5 is_stmt 1 view .LVU465
 1254 0022 0329     		cmp	r1, #3
 1255 0024 F9D8     		bhi	.L73
 1256 0026 DFE801F0 		tbb	[pc, r1]
 1257              	.L75:
 1258 002a 02       		.byte	(.L78-.L75)/2
 1259 002b 05       		.byte	(.L77-.L75)/2
 1260 002c 08       		.byte	(.L76-.L75)/2
 1261 002d 0B       		.byte	(.L74-.L75)/2
 1262              		.p2align 1
 1263              	.L78:
 672:Drivers/STM32F3xx_HAL_Driver/Src/stm32f3xx_hal_dma.c ****            break;
 1264              		.loc 1 672 12 view .LVU466
 672:Drivers/STM32F3xx_HAL_Driver/Src/stm32f3xx_hal_dma.c ****            break;
 1265              		.loc 1 672 35 is_stmt 0 view .LVU467
 1266 002e 9A62     		str	r2, [r3, #40]
 673:Drivers/STM32F3xx_HAL_Driver/Src/stm32f3xx_hal_dma.c ****        
 1267              		.loc 1 673 12 is_stmt 1 view .LVU468
 662:Drivers/STM32F3xx_HAL_Driver/Src/stm32f3xx_hal_dma.c ****   
 1268              		.loc 1 662 21 is_stmt 0 view .LVU469
 1269 0030 0846     		mov	r0, r1
 673:Drivers/STM32F3xx_HAL_Driver/Src/stm32f3xx_hal_dma.c ****        
 1270              		.loc 1 673 12 view .LVU470
 1271 0032 F2E7     		b	.L73
 1272              	.L77:
ARM GAS  C:\Users\NICHOL~2\AppData\Local\Temp\ccYots5l.s 			page 46


 676:Drivers/STM32F3xx_HAL_Driver/Src/stm32f3xx_hal_dma.c ****            break;         
 1273              		.loc 1 676 12 is_stmt 1 view .LVU471
 676:Drivers/STM32F3xx_HAL_Driver/Src/stm32f3xx_hal_dma.c ****            break;         
 1274              		.loc 1 676 39 is_stmt 0 view .LVU472
 1275 0034 DA62     		str	r2, [r3, #44]
 677:Drivers/STM32F3xx_HAL_Driver/Src/stm32f3xx_hal_dma.c **** 
 1276              		.loc 1 677 12 is_stmt 1 view .LVU473
 662:Drivers/STM32F3xx_HAL_Driver/Src/stm32f3xx_hal_dma.c ****   
 1277              		.loc 1 662 21 is_stmt 0 view .LVU474
 1278 0036 0020     		movs	r0, #0
 677:Drivers/STM32F3xx_HAL_Driver/Src/stm32f3xx_hal_dma.c **** 
 1279              		.loc 1 677 12 view .LVU475
 1280 0038 EFE7     		b	.L73
 1281              	.L76:
 680:Drivers/STM32F3xx_HAL_Driver/Src/stm32f3xx_hal_dma.c ****            break;         
 1282              		.loc 1 680 12 is_stmt 1 view .LVU476
 680:Drivers/STM32F3xx_HAL_Driver/Src/stm32f3xx_hal_dma.c ****            break;         
 1283              		.loc 1 680 36 is_stmt 0 view .LVU477
 1284 003a 1A63     		str	r2, [r3, #48]
 681:Drivers/STM32F3xx_HAL_Driver/Src/stm32f3xx_hal_dma.c ****            
 1285              		.loc 1 681 12 is_stmt 1 view .LVU478
 662:Drivers/STM32F3xx_HAL_Driver/Src/stm32f3xx_hal_dma.c ****   
 1286              		.loc 1 662 21 is_stmt 0 view .LVU479
 1287 003c 0020     		movs	r0, #0
 681:Drivers/STM32F3xx_HAL_Driver/Src/stm32f3xx_hal_dma.c ****            
 1288              		.loc 1 681 12 view .LVU480
 1289 003e ECE7     		b	.L73
 1290              	.L74:
 684:Drivers/STM32F3xx_HAL_Driver/Src/stm32f3xx_hal_dma.c ****            break; 
 1291              		.loc 1 684 12 is_stmt 1 view .LVU481
 684:Drivers/STM32F3xx_HAL_Driver/Src/stm32f3xx_hal_dma.c ****            break; 
 1292              		.loc 1 684 36 is_stmt 0 view .LVU482
 1293 0040 5A63     		str	r2, [r3, #52]
 685:Drivers/STM32F3xx_HAL_Driver/Src/stm32f3xx_hal_dma.c ****            
 1294              		.loc 1 685 12 is_stmt 1 view .LVU483
 662:Drivers/STM32F3xx_HAL_Driver/Src/stm32f3xx_hal_dma.c ****   
 1295              		.loc 1 662 21 is_stmt 0 view .LVU484
 1296 0042 0020     		movs	r0, #0
 685:Drivers/STM32F3xx_HAL_Driver/Src/stm32f3xx_hal_dma.c ****            
 1297              		.loc 1 685 12 view .LVU485
 1298 0044 E9E7     		b	.L73
 1299              	.L79:
 665:Drivers/STM32F3xx_HAL_Driver/Src/stm32f3xx_hal_dma.c ****   
 1300              		.loc 1 665 3 view .LVU486
 1301 0046 0220     		movs	r0, #2
 701:Drivers/STM32F3xx_HAL_Driver/Src/stm32f3xx_hal_dma.c **** 
 1302              		.loc 1 701 1 view .LVU487
 1303 0048 7047     		bx	lr
 1304              		.cfi_endproc
 1305              	.LFE138:
 1307              		.section	.text.HAL_DMA_UnRegisterCallback,"ax",%progbits
 1308              		.align	1
 1309              		.global	HAL_DMA_UnRegisterCallback
 1310              		.syntax unified
 1311              		.thumb
 1312              		.thumb_func
 1314              	HAL_DMA_UnRegisterCallback:
ARM GAS  C:\Users\NICHOL~2\AppData\Local\Temp\ccYots5l.s 			page 47


 1315              	.LVL79:
 1316              	.LFB139:
 712:Drivers/STM32F3xx_HAL_Driver/Src/stm32f3xx_hal_dma.c ****   HAL_StatusTypeDef status = HAL_OK;
 1317              		.loc 1 712 1 is_stmt 1 view -0
 1318              		.cfi_startproc
 1319              		@ args = 0, pretend = 0, frame = 0
 1320              		@ frame_needed = 0, uses_anonymous_args = 0
 1321              		@ link register save eliminated.
 712:Drivers/STM32F3xx_HAL_Driver/Src/stm32f3xx_hal_dma.c ****   HAL_StatusTypeDef status = HAL_OK;
 1322              		.loc 1 712 1 is_stmt 0 view .LVU489
 1323 0000 0346     		mov	r3, r0
 713:Drivers/STM32F3xx_HAL_Driver/Src/stm32f3xx_hal_dma.c **** 
 1324              		.loc 1 713 3 is_stmt 1 view .LVU490
 1325              	.LVL80:
 716:Drivers/STM32F3xx_HAL_Driver/Src/stm32f3xx_hal_dma.c ****   
 1326              		.loc 1 716 3 view .LVU491
 716:Drivers/STM32F3xx_HAL_Driver/Src/stm32f3xx_hal_dma.c ****   
 1327              		.loc 1 716 3 view .LVU492
 1328 0002 90F82020 		ldrb	r2, [r0, #32]	@ zero_extendqisi2
 1329 0006 012A     		cmp	r2, #1
 1330 0008 25D0     		beq	.L91
 716:Drivers/STM32F3xx_HAL_Driver/Src/stm32f3xx_hal_dma.c ****   
 1331              		.loc 1 716 3 discriminator 2 view .LVU493
 1332 000a 0122     		movs	r2, #1
 1333 000c 80F82020 		strb	r2, [r0, #32]
 716:Drivers/STM32F3xx_HAL_Driver/Src/stm32f3xx_hal_dma.c ****   
 1334              		.loc 1 716 3 discriminator 2 view .LVU494
 718:Drivers/STM32F3xx_HAL_Driver/Src/stm32f3xx_hal_dma.c ****   {
 1335              		.loc 1 718 3 discriminator 2 view .LVU495
 718:Drivers/STM32F3xx_HAL_Driver/Src/stm32f3xx_hal_dma.c ****   {
 1336              		.loc 1 718 33 is_stmt 0 discriminator 2 view .LVU496
 1337 0010 90F82100 		ldrb	r0, [r0, #33]	@ zero_extendqisi2
 1338              	.LVL81:
 718:Drivers/STM32F3xx_HAL_Driver/Src/stm32f3xx_hal_dma.c ****   {
 1339              		.loc 1 718 5 discriminator 2 view .LVU497
 1340 0014 9042     		cmp	r0, r2
 1341 0016 04D0     		beq	.L93
 752:Drivers/STM32F3xx_HAL_Driver/Src/stm32f3xx_hal_dma.c ****   } 
 1342              		.loc 1 752 12 view .LVU498
 1343 0018 0120     		movs	r0, #1
 1344              	.L84:
 1345              	.LVL82:
 756:Drivers/STM32F3xx_HAL_Driver/Src/stm32f3xx_hal_dma.c ****   
 1346              		.loc 1 756 3 is_stmt 1 view .LVU499
 756:Drivers/STM32F3xx_HAL_Driver/Src/stm32f3xx_hal_dma.c ****   
 1347              		.loc 1 756 3 view .LVU500
 1348 001a 0022     		movs	r2, #0
 1349 001c 83F82020 		strb	r2, [r3, #32]
 756:Drivers/STM32F3xx_HAL_Driver/Src/stm32f3xx_hal_dma.c ****   
 1350              		.loc 1 756 3 view .LVU501
 758:Drivers/STM32F3xx_HAL_Driver/Src/stm32f3xx_hal_dma.c **** }
 1351              		.loc 1 758 3 view .LVU502
 758:Drivers/STM32F3xx_HAL_Driver/Src/stm32f3xx_hal_dma.c **** }
 1352              		.loc 1 758 10 is_stmt 0 view .LVU503
 1353 0020 7047     		bx	lr
 1354              	.LVL83:
 1355              	.L93:
ARM GAS  C:\Users\NICHOL~2\AppData\Local\Temp\ccYots5l.s 			page 48


 720:Drivers/STM32F3xx_HAL_Driver/Src/stm32f3xx_hal_dma.c ****     {
 1356              		.loc 1 720 5 is_stmt 1 view .LVU504
 1357 0022 0429     		cmp	r1, #4
 1358 0024 F9D8     		bhi	.L84
 1359 0026 DFE801F0 		tbb	[pc, r1]
 1360              	.L86:
 1361 002a 03       		.byte	(.L90-.L86)/2
 1362 002b 07       		.byte	(.L89-.L86)/2
 1363 002c 0A       		.byte	(.L88-.L86)/2
 1364 002d 0D       		.byte	(.L87-.L86)/2
 1365 002e 10       		.byte	(.L85-.L86)/2
 1366 002f 00       		.p2align 1
 1367              	.L90:
 723:Drivers/STM32F3xx_HAL_Driver/Src/stm32f3xx_hal_dma.c ****            break;
 1368              		.loc 1 723 12 view .LVU505
 723:Drivers/STM32F3xx_HAL_Driver/Src/stm32f3xx_hal_dma.c ****            break;
 1369              		.loc 1 723 35 is_stmt 0 view .LVU506
 1370 0030 0022     		movs	r2, #0
 1371 0032 9A62     		str	r2, [r3, #40]
 724:Drivers/STM32F3xx_HAL_Driver/Src/stm32f3xx_hal_dma.c ****        
 1372              		.loc 1 724 12 is_stmt 1 view .LVU507
 713:Drivers/STM32F3xx_HAL_Driver/Src/stm32f3xx_hal_dma.c **** 
 1373              		.loc 1 713 21 is_stmt 0 view .LVU508
 1374 0034 0846     		mov	r0, r1
 724:Drivers/STM32F3xx_HAL_Driver/Src/stm32f3xx_hal_dma.c ****        
 1375              		.loc 1 724 12 view .LVU509
 1376 0036 F0E7     		b	.L84
 1377              	.L89:
 727:Drivers/STM32F3xx_HAL_Driver/Src/stm32f3xx_hal_dma.c ****            break;         
 1378              		.loc 1 727 12 is_stmt 1 view .LVU510
 727:Drivers/STM32F3xx_HAL_Driver/Src/stm32f3xx_hal_dma.c ****            break;         
 1379              		.loc 1 727 39 is_stmt 0 view .LVU511
 1380 0038 0020     		movs	r0, #0
 1381 003a D862     		str	r0, [r3, #44]
 728:Drivers/STM32F3xx_HAL_Driver/Src/stm32f3xx_hal_dma.c **** 
 1382              		.loc 1 728 12 is_stmt 1 view .LVU512
 1383 003c EDE7     		b	.L84
 1384              	.L88:
 731:Drivers/STM32F3xx_HAL_Driver/Src/stm32f3xx_hal_dma.c ****            break;         
 1385              		.loc 1 731 12 view .LVU513
 731:Drivers/STM32F3xx_HAL_Driver/Src/stm32f3xx_hal_dma.c ****            break;         
 1386              		.loc 1 731 36 is_stmt 0 view .LVU514
 1387 003e 0020     		movs	r0, #0
 1388 0040 1863     		str	r0, [r3, #48]
 732:Drivers/STM32F3xx_HAL_Driver/Src/stm32f3xx_hal_dma.c ****            
 1389              		.loc 1 732 12 is_stmt 1 view .LVU515
 1390 0042 EAE7     		b	.L84
 1391              	.L87:
 735:Drivers/STM32F3xx_HAL_Driver/Src/stm32f3xx_hal_dma.c ****            break; 
 1392              		.loc 1 735 12 view .LVU516
 735:Drivers/STM32F3xx_HAL_Driver/Src/stm32f3xx_hal_dma.c ****            break; 
 1393              		.loc 1 735 36 is_stmt 0 view .LVU517
 1394 0044 0020     		movs	r0, #0
 1395 0046 5863     		str	r0, [r3, #52]
 736:Drivers/STM32F3xx_HAL_Driver/Src/stm32f3xx_hal_dma.c ****      
 1396              		.loc 1 736 12 is_stmt 1 view .LVU518
 1397 0048 E7E7     		b	.L84
ARM GAS  C:\Users\NICHOL~2\AppData\Local\Temp\ccYots5l.s 			page 49


 1398              	.L85:
 739:Drivers/STM32F3xx_HAL_Driver/Src/stm32f3xx_hal_dma.c ****            hdma->XferHalfCpltCallback = NULL;
 1399              		.loc 1 739 12 view .LVU519
 739:Drivers/STM32F3xx_HAL_Driver/Src/stm32f3xx_hal_dma.c ****            hdma->XferHalfCpltCallback = NULL;
 1400              		.loc 1 739 35 is_stmt 0 view .LVU520
 1401 004a 0020     		movs	r0, #0
 1402 004c 9862     		str	r0, [r3, #40]
 740:Drivers/STM32F3xx_HAL_Driver/Src/stm32f3xx_hal_dma.c ****            hdma->XferErrorCallback = NULL;
 1403              		.loc 1 740 12 is_stmt 1 view .LVU521
 740:Drivers/STM32F3xx_HAL_Driver/Src/stm32f3xx_hal_dma.c ****            hdma->XferErrorCallback = NULL;
 1404              		.loc 1 740 39 is_stmt 0 view .LVU522
 1405 004e D862     		str	r0, [r3, #44]
 741:Drivers/STM32F3xx_HAL_Driver/Src/stm32f3xx_hal_dma.c ****            hdma->XferAbortCallback = NULL;
 1406              		.loc 1 741 12 is_stmt 1 view .LVU523
 741:Drivers/STM32F3xx_HAL_Driver/Src/stm32f3xx_hal_dma.c ****            hdma->XferAbortCallback = NULL;
 1407              		.loc 1 741 36 is_stmt 0 view .LVU524
 1408 0050 1863     		str	r0, [r3, #48]
 742:Drivers/STM32F3xx_HAL_Driver/Src/stm32f3xx_hal_dma.c ****            break; 
 1409              		.loc 1 742 12 is_stmt 1 view .LVU525
 742:Drivers/STM32F3xx_HAL_Driver/Src/stm32f3xx_hal_dma.c ****            break; 
 1410              		.loc 1 742 36 is_stmt 0 view .LVU526
 1411 0052 5863     		str	r0, [r3, #52]
 743:Drivers/STM32F3xx_HAL_Driver/Src/stm32f3xx_hal_dma.c ****      
 1412              		.loc 1 743 12 is_stmt 1 view .LVU527
 1413 0054 E1E7     		b	.L84
 1414              	.LVL84:
 1415              	.L91:
 716:Drivers/STM32F3xx_HAL_Driver/Src/stm32f3xx_hal_dma.c ****   
 1416              		.loc 1 716 3 is_stmt 0 view .LVU528
 1417 0056 0220     		movs	r0, #2
 1418              	.LVL85:
 759:Drivers/STM32F3xx_HAL_Driver/Src/stm32f3xx_hal_dma.c **** 
 1419              		.loc 1 759 1 view .LVU529
 1420 0058 7047     		bx	lr
 1421              		.cfi_endproc
 1422              	.LFE139:
 1424              		.section	.text.HAL_DMA_GetState,"ax",%progbits
 1425              		.align	1
 1426              		.global	HAL_DMA_GetState
 1427              		.syntax unified
 1428              		.thumb
 1429              		.thumb_func
 1431              	HAL_DMA_GetState:
 1432              	.LVL86:
 1433              	.LFB140:
 788:Drivers/STM32F3xx_HAL_Driver/Src/stm32f3xx_hal_dma.c ****   return hdma->State;
 1434              		.loc 1 788 1 is_stmt 1 view -0
 1435              		.cfi_startproc
 1436              		@ args = 0, pretend = 0, frame = 0
 1437              		@ frame_needed = 0, uses_anonymous_args = 0
 1438              		@ link register save eliminated.
 789:Drivers/STM32F3xx_HAL_Driver/Src/stm32f3xx_hal_dma.c **** }
 1439              		.loc 1 789 3 view .LVU531
 790:Drivers/STM32F3xx_HAL_Driver/Src/stm32f3xx_hal_dma.c **** 
 1440              		.loc 1 790 1 is_stmt 0 view .LVU532
 1441 0000 90F82100 		ldrb	r0, [r0, #33]	@ zero_extendqisi2
 1442              	.LVL87:
ARM GAS  C:\Users\NICHOL~2\AppData\Local\Temp\ccYots5l.s 			page 50


 790:Drivers/STM32F3xx_HAL_Driver/Src/stm32f3xx_hal_dma.c **** 
 1443              		.loc 1 790 1 view .LVU533
 1444 0004 7047     		bx	lr
 1445              		.cfi_endproc
 1446              	.LFE140:
 1448              		.section	.text.HAL_DMA_GetError,"ax",%progbits
 1449              		.align	1
 1450              		.global	HAL_DMA_GetError
 1451              		.syntax unified
 1452              		.thumb
 1453              		.thumb_func
 1455              	HAL_DMA_GetError:
 1456              	.LVL88:
 1457              	.LFB141:
 799:Drivers/STM32F3xx_HAL_Driver/Src/stm32f3xx_hal_dma.c ****   return hdma->ErrorCode;
 1458              		.loc 1 799 1 is_stmt 1 view -0
 1459              		.cfi_startproc
 1460              		@ args = 0, pretend = 0, frame = 0
 1461              		@ frame_needed = 0, uses_anonymous_args = 0
 1462              		@ link register save eliminated.
 800:Drivers/STM32F3xx_HAL_Driver/Src/stm32f3xx_hal_dma.c **** }
 1463              		.loc 1 800 3 view .LVU535
 800:Drivers/STM32F3xx_HAL_Driver/Src/stm32f3xx_hal_dma.c **** }
 1464              		.loc 1 800 14 is_stmt 0 view .LVU536
 1465 0000 806B     		ldr	r0, [r0, #56]
 1466              	.LVL89:
 801:Drivers/STM32F3xx_HAL_Driver/Src/stm32f3xx_hal_dma.c **** 
 1467              		.loc 1 801 1 view .LVU537
 1468 0002 7047     		bx	lr
 1469              		.cfi_endproc
 1470              	.LFE141:
 1472              		.text
 1473              	.Letext0:
 1474              		.file 2 "c:\\program files (x86)\\gnu arm embedded toolchain\\10 2021.10\\arm-none-eabi\\include\\
 1475              		.file 3 "c:\\program files (x86)\\gnu arm embedded toolchain\\10 2021.10\\arm-none-eabi\\include\\
 1476              		.file 4 "Drivers/CMSIS/Device/ST/STM32F3xx/Include/stm32f303xe.h"
 1477              		.file 5 "Drivers/CMSIS/Device/ST/STM32F3xx/Include/stm32f3xx.h"
 1478              		.file 6 "Drivers/STM32F3xx_HAL_Driver/Inc/stm32f3xx_hal_def.h"
 1479              		.file 7 "Drivers/STM32F3xx_HAL_Driver/Inc/stm32f3xx_hal_dma.h"
 1480              		.file 8 "Drivers/STM32F3xx_HAL_Driver/Inc/stm32f3xx_hal.h"
ARM GAS  C:\Users\NICHOL~2\AppData\Local\Temp\ccYots5l.s 			page 51

