ARM GAS  C:\Users\NICHOL~2\AppData\Local\Temp\ccNGQVCL.s 			page 1


   1              		.cpu cortex-m4
   2              		.arch armv7e-m
   3              		.fpu fpv4-sp-d16
   4              		.eabi_attribute 27, 1
   5              		.eabi_attribute 28, 1
   6              		.eabi_attribute 20, 1
   7              		.eabi_attribute 21, 1
   8              		.eabi_attribute 23, 3
   9              		.eabi_attribute 24, 1
  10              		.eabi_attribute 25, 1
  11              		.eabi_attribute 26, 1
  12              		.eabi_attribute 30, 1
  13              		.eabi_attribute 34, 1
  14              		.eabi_attribute 18, 4
  15              		.file	"main.c"
  16              		.text
  17              	.Ltext0:
  18              		.cfi_sections	.debug_frame
  19              		.section	.text.Error_Handler,"ax",%progbits
  20              		.align	1
  21              		.global	Error_Handler
  22              		.syntax unified
  23              		.thumb
  24              		.thumb_func
  26              	Error_Handler:
  27              	.LFB127:
  28              		.file 1 "Src/main.c"
   1:Src/main.c    **** /* USER CODE BEGIN Header */
   2:Src/main.c    **** /**
   3:Src/main.c    ****   ******************************************************************************
   4:Src/main.c    ****   * @file           : main.c
   5:Src/main.c    ****   * @brief          : Main program body
   6:Src/main.c    ****   ******************************************************************************
   7:Src/main.c    ****   * @attention
   8:Src/main.c    ****   *
   9:Src/main.c    ****   * Copyright (c) 2024 STMicroelectronics.
  10:Src/main.c    ****   * All rights reserved.
  11:Src/main.c    ****   *
  12:Src/main.c    ****   * This software is licensed under terms that can be found in the LICENSE file
  13:Src/main.c    ****   * in the root directory of this software component.
  14:Src/main.c    ****   * If no LICENSE file comes with this software, it is provided AS-IS.
  15:Src/main.c    ****   *
  16:Src/main.c    ****   ******************************************************************************
  17:Src/main.c    ****   */
  18:Src/main.c    **** /* USER CODE END Header */
  19:Src/main.c    **** /* Includes ------------------------------------------------------------------*/
  20:Src/main.c    **** #include "main.h"
  21:Src/main.c    **** 
  22:Src/main.c    **** /* Private includes ----------------------------------------------------------*/
  23:Src/main.c    **** /* USER CODE BEGIN Includes */
  24:Src/main.c    **** 
  25:Src/main.c    **** /* USER CODE END Includes */
  26:Src/main.c    **** 
  27:Src/main.c    **** /* Private typedef -----------------------------------------------------------*/
  28:Src/main.c    **** /* USER CODE BEGIN PTD */
  29:Src/main.c    **** 
  30:Src/main.c    **** /* USER CODE END PTD */
ARM GAS  C:\Users\NICHOL~2\AppData\Local\Temp\ccNGQVCL.s 			page 2


  31:Src/main.c    **** 
  32:Src/main.c    **** /* Private define ------------------------------------------------------------*/
  33:Src/main.c    **** /* USER CODE BEGIN PD */
  34:Src/main.c    **** /* USER CODE END PD */
  35:Src/main.c    **** 
  36:Src/main.c    **** /* Private macro -------------------------------------------------------------*/
  37:Src/main.c    **** /* USER CODE BEGIN PM */
  38:Src/main.c    **** 
  39:Src/main.c    **** /* USER CODE END PM */
  40:Src/main.c    **** 
  41:Src/main.c    **** /* Private variables ---------------------------------------------------------*/
  42:Src/main.c    **** RTC_HandleTypeDef hrtc;
  43:Src/main.c    **** 
  44:Src/main.c    **** TIM_HandleTypeDef htim6;
  45:Src/main.c    **** 
  46:Src/main.c    **** /* USER CODE BEGIN PV */
  47:Src/main.c    **** 
  48:Src/main.c    **** /* USER CODE END PV */
  49:Src/main.c    **** 
  50:Src/main.c    **** /* Private function prototypes -----------------------------------------------*/
  51:Src/main.c    **** void SystemClock_Config(void);
  52:Src/main.c    **** static void MX_RTC_Init(void);
  53:Src/main.c    **** static void MX_TIM6_Init(void);
  54:Src/main.c    **** /* USER CODE BEGIN PFP */
  55:Src/main.c    **** 
  56:Src/main.c    **** /* USER CODE END PFP */
  57:Src/main.c    **** 
  58:Src/main.c    **** /* Private user code ---------------------------------------------------------*/
  59:Src/main.c    **** /* USER CODE BEGIN 0 */
  60:Src/main.c    **** 
  61:Src/main.c    **** /* USER CODE END 0 */
  62:Src/main.c    **** 
  63:Src/main.c    **** /**
  64:Src/main.c    ****   * @brief  The application entry point.
  65:Src/main.c    ****   * @retval int
  66:Src/main.c    ****   */
  67:Src/main.c    **** int main(void)
  68:Src/main.c    **** {
  69:Src/main.c    ****   /* USER CODE BEGIN 1 */
  70:Src/main.c    **** 
  71:Src/main.c    ****   /* USER CODE END 1 */
  72:Src/main.c    **** 
  73:Src/main.c    ****   /* MCU Configuration--------------------------------------------------------*/
  74:Src/main.c    **** 
  75:Src/main.c    ****   /* Reset of all peripherals, Initializes the Flash interface and the Systick. */
  76:Src/main.c    ****   HAL_Init();
  77:Src/main.c    **** 
  78:Src/main.c    ****   /* USER CODE BEGIN Init */
  79:Src/main.c    **** 
  80:Src/main.c    ****   /* USER CODE END Init */
  81:Src/main.c    **** 
  82:Src/main.c    ****   /* Configure the system clock */
  83:Src/main.c    ****   SystemClock_Config();
  84:Src/main.c    **** 
  85:Src/main.c    ****   /* USER CODE BEGIN SysInit */
  86:Src/main.c    **** 
  87:Src/main.c    ****   /* USER CODE END SysInit */
ARM GAS  C:\Users\NICHOL~2\AppData\Local\Temp\ccNGQVCL.s 			page 3


  88:Src/main.c    **** 
  89:Src/main.c    ****   /* Initialize all configured peripherals */
  90:Src/main.c    ****   MX_RTC_Init();
  91:Src/main.c    ****   MX_TIM6_Init();
  92:Src/main.c    ****   /* USER CODE BEGIN 2 */
  93:Src/main.c    **** 
  94:Src/main.c    ****   /* USER CODE END 2 */
  95:Src/main.c    **** 
  96:Src/main.c    ****   /* Infinite loop */
  97:Src/main.c    ****   /* USER CODE BEGIN WHILE */
  98:Src/main.c    ****   while (1)
  99:Src/main.c    ****   {
 100:Src/main.c    ****     /* USER CODE END WHILE */
 101:Src/main.c    **** 
 102:Src/main.c    ****     /* USER CODE BEGIN 3 */
 103:Src/main.c    ****   }
 104:Src/main.c    ****   /* USER CODE END 3 */
 105:Src/main.c    **** }
 106:Src/main.c    **** 
 107:Src/main.c    **** /**
 108:Src/main.c    ****   * @brief System Clock Configuration
 109:Src/main.c    ****   * @retval None
 110:Src/main.c    ****   */
 111:Src/main.c    **** void SystemClock_Config(void)
 112:Src/main.c    **** {
 113:Src/main.c    ****   RCC_OscInitTypeDef RCC_OscInitStruct = {0};
 114:Src/main.c    ****   RCC_ClkInitTypeDef RCC_ClkInitStruct = {0};
 115:Src/main.c    ****   RCC_PeriphCLKInitTypeDef PeriphClkInit = {0};
 116:Src/main.c    **** 
 117:Src/main.c    ****   /** Initializes the RCC Oscillators according to the specified parameters
 118:Src/main.c    ****   * in the RCC_OscInitTypeDef structure.
 119:Src/main.c    ****   */
 120:Src/main.c    ****   RCC_OscInitStruct.OscillatorType = RCC_OSCILLATORTYPE_HSI|RCC_OSCILLATORTYPE_LSI;
 121:Src/main.c    ****   RCC_OscInitStruct.HSIState = RCC_HSI_ON;
 122:Src/main.c    ****   RCC_OscInitStruct.HSICalibrationValue = RCC_HSICALIBRATION_DEFAULT;
 123:Src/main.c    ****   RCC_OscInitStruct.LSIState = RCC_LSI_ON;
 124:Src/main.c    ****   RCC_OscInitStruct.PLL.PLLState = RCC_PLL_NONE;
 125:Src/main.c    ****   if (HAL_RCC_OscConfig(&RCC_OscInitStruct) != HAL_OK)
 126:Src/main.c    ****   {
 127:Src/main.c    ****     Error_Handler();
 128:Src/main.c    ****   }
 129:Src/main.c    ****   /** Initializes the CPU, AHB and APB buses clocks
 130:Src/main.c    ****   */
 131:Src/main.c    ****   RCC_ClkInitStruct.ClockType = RCC_CLOCKTYPE_HCLK|RCC_CLOCKTYPE_SYSCLK
 132:Src/main.c    ****                               |RCC_CLOCKTYPE_PCLK1|RCC_CLOCKTYPE_PCLK2;
 133:Src/main.c    ****   RCC_ClkInitStruct.SYSCLKSource = RCC_SYSCLKSOURCE_HSI;
 134:Src/main.c    ****   RCC_ClkInitStruct.AHBCLKDivider = RCC_SYSCLK_DIV1;
 135:Src/main.c    ****   RCC_ClkInitStruct.APB1CLKDivider = RCC_HCLK_DIV1;
 136:Src/main.c    ****   RCC_ClkInitStruct.APB2CLKDivider = RCC_HCLK_DIV1;
 137:Src/main.c    **** 
 138:Src/main.c    ****   if (HAL_RCC_ClockConfig(&RCC_ClkInitStruct, FLASH_LATENCY_0) != HAL_OK)
 139:Src/main.c    ****   {
 140:Src/main.c    ****     Error_Handler();
 141:Src/main.c    ****   }
 142:Src/main.c    ****   PeriphClkInit.PeriphClockSelection = RCC_PERIPHCLK_RTC;
 143:Src/main.c    ****   PeriphClkInit.RTCClockSelection = RCC_RTCCLKSOURCE_LSI;
 144:Src/main.c    ****   if (HAL_RCCEx_PeriphCLKConfig(&PeriphClkInit) != HAL_OK)
ARM GAS  C:\Users\NICHOL~2\AppData\Local\Temp\ccNGQVCL.s 			page 4


 145:Src/main.c    ****   {
 146:Src/main.c    ****     Error_Handler();
 147:Src/main.c    ****   }
 148:Src/main.c    **** }
 149:Src/main.c    **** 
 150:Src/main.c    **** /**
 151:Src/main.c    ****   * @brief RTC Initialization Function
 152:Src/main.c    ****   * @param None
 153:Src/main.c    ****   * @retval None
 154:Src/main.c    ****   */
 155:Src/main.c    **** static void MX_RTC_Init(void)
 156:Src/main.c    **** {
 157:Src/main.c    **** 
 158:Src/main.c    ****   /* USER CODE BEGIN RTC_Init 0 */
 159:Src/main.c    **** 
 160:Src/main.c    ****   /* USER CODE END RTC_Init 0 */
 161:Src/main.c    **** 
 162:Src/main.c    ****   /* USER CODE BEGIN RTC_Init 1 */
 163:Src/main.c    **** 
 164:Src/main.c    ****   /* USER CODE END RTC_Init 1 */
 165:Src/main.c    ****   /** Initialize RTC Only
 166:Src/main.c    ****   */
 167:Src/main.c    ****   hrtc.Instance = RTC;
 168:Src/main.c    ****   hrtc.Init.HourFormat = RTC_HOURFORMAT_24;
 169:Src/main.c    ****   hrtc.Init.AsynchPrediv = 127;
 170:Src/main.c    ****   hrtc.Init.SynchPrediv = 255;
 171:Src/main.c    ****   hrtc.Init.OutPut = RTC_OUTPUT_DISABLE;
 172:Src/main.c    ****   hrtc.Init.OutPutPolarity = RTC_OUTPUT_POLARITY_HIGH;
 173:Src/main.c    ****   hrtc.Init.OutPutType = RTC_OUTPUT_TYPE_OPENDRAIN;
 174:Src/main.c    ****   if (HAL_RTC_Init(&hrtc) != HAL_OK)
 175:Src/main.c    ****   {
 176:Src/main.c    ****     Error_Handler();
 177:Src/main.c    ****   }
 178:Src/main.c    ****   /* USER CODE BEGIN RTC_Init 2 */
 179:Src/main.c    **** 
 180:Src/main.c    ****   /* USER CODE END RTC_Init 2 */
 181:Src/main.c    **** 
 182:Src/main.c    **** }
 183:Src/main.c    **** 
 184:Src/main.c    **** /**
 185:Src/main.c    ****   * @brief TIM6 Initialization Function
 186:Src/main.c    ****   * @param None
 187:Src/main.c    ****   * @retval None
 188:Src/main.c    ****   */
 189:Src/main.c    **** static void MX_TIM6_Init(void)
 190:Src/main.c    **** {
 191:Src/main.c    **** 
 192:Src/main.c    ****   /* USER CODE BEGIN TIM6_Init 0 */
 193:Src/main.c    **** 
 194:Src/main.c    ****   /* USER CODE END TIM6_Init 0 */
 195:Src/main.c    **** 
 196:Src/main.c    ****   TIM_MasterConfigTypeDef sMasterConfig = {0};
 197:Src/main.c    **** 
 198:Src/main.c    ****   /* USER CODE BEGIN TIM6_Init 1 */
 199:Src/main.c    **** 
 200:Src/main.c    ****   /* USER CODE END TIM6_Init 1 */
 201:Src/main.c    ****   htim6.Instance = TIM6;
ARM GAS  C:\Users\NICHOL~2\AppData\Local\Temp\ccNGQVCL.s 			page 5


 202:Src/main.c    ****   htim6.Init.Prescaler = 0;
 203:Src/main.c    ****   htim6.Init.CounterMode = TIM_COUNTERMODE_UP;
 204:Src/main.c    ****   htim6.Init.Period = 65535;
 205:Src/main.c    ****   htim6.Init.AutoReloadPreload = TIM_AUTORELOAD_PRELOAD_DISABLE;
 206:Src/main.c    ****   if (HAL_TIM_Base_Init(&htim6) != HAL_OK)
 207:Src/main.c    ****   {
 208:Src/main.c    ****     Error_Handler();
 209:Src/main.c    ****   }
 210:Src/main.c    ****   sMasterConfig.MasterOutputTrigger = TIM_TRGO_RESET;
 211:Src/main.c    ****   sMasterConfig.MasterSlaveMode = TIM_MASTERSLAVEMODE_DISABLE;
 212:Src/main.c    ****   if (HAL_TIMEx_MasterConfigSynchronization(&htim6, &sMasterConfig) != HAL_OK)
 213:Src/main.c    ****   {
 214:Src/main.c    ****     Error_Handler();
 215:Src/main.c    ****   }
 216:Src/main.c    ****   /* USER CODE BEGIN TIM6_Init 2 */
 217:Src/main.c    **** 
 218:Src/main.c    ****   /* USER CODE END TIM6_Init 2 */
 219:Src/main.c    **** 
 220:Src/main.c    **** }
 221:Src/main.c    **** 
 222:Src/main.c    **** /* USER CODE BEGIN 4 */
 223:Src/main.c    **** 
 224:Src/main.c    **** /* USER CODE END 4 */
 225:Src/main.c    **** 
 226:Src/main.c    **** /**
 227:Src/main.c    ****   * @brief  This function is executed in case of error occurrence.
 228:Src/main.c    ****   * @retval None
 229:Src/main.c    ****   */
 230:Src/main.c    **** void Error_Handler(void)
 231:Src/main.c    **** {
  29              		.loc 1 231 1 view -0
  30              		.cfi_startproc
  31              		@ Volatile: function does not return.
  32              		@ args = 0, pretend = 0, frame = 0
  33              		@ frame_needed = 0, uses_anonymous_args = 0
  34              		@ link register save eliminated.
 232:Src/main.c    ****   /* USER CODE BEGIN Error_Handler_Debug */
 233:Src/main.c    ****   /* User can add his own implementation to report the HAL error return state */
 234:Src/main.c    ****   __disable_irq();
  35              		.loc 1 234 3 view .LVU1
  36              	.LBB4:
  37              	.LBI4:
  38              		.file 2 "Drivers/CMSIS/Include/cmsis_gcc.h"
   1:Drivers/CMSIS/Include/cmsis_gcc.h **** /**************************************************************************//**
   2:Drivers/CMSIS/Include/cmsis_gcc.h ****  * @file     cmsis_gcc.h
   3:Drivers/CMSIS/Include/cmsis_gcc.h ****  * @brief    CMSIS compiler GCC header file
   4:Drivers/CMSIS/Include/cmsis_gcc.h ****  * @version  V5.0.4
   5:Drivers/CMSIS/Include/cmsis_gcc.h ****  * @date     09. April 2018
   6:Drivers/CMSIS/Include/cmsis_gcc.h ****  ******************************************************************************/
   7:Drivers/CMSIS/Include/cmsis_gcc.h **** /*
   8:Drivers/CMSIS/Include/cmsis_gcc.h ****  * Copyright (c) 2009-2018 Arm Limited. All rights reserved.
   9:Drivers/CMSIS/Include/cmsis_gcc.h ****  *
  10:Drivers/CMSIS/Include/cmsis_gcc.h ****  * SPDX-License-Identifier: Apache-2.0
  11:Drivers/CMSIS/Include/cmsis_gcc.h ****  *
  12:Drivers/CMSIS/Include/cmsis_gcc.h ****  * Licensed under the Apache License, Version 2.0 (the License); you may
  13:Drivers/CMSIS/Include/cmsis_gcc.h ****  * not use this file except in compliance with the License.
  14:Drivers/CMSIS/Include/cmsis_gcc.h ****  * You may obtain a copy of the License at
ARM GAS  C:\Users\NICHOL~2\AppData\Local\Temp\ccNGQVCL.s 			page 6


  15:Drivers/CMSIS/Include/cmsis_gcc.h ****  *
  16:Drivers/CMSIS/Include/cmsis_gcc.h ****  * www.apache.org/licenses/LICENSE-2.0
  17:Drivers/CMSIS/Include/cmsis_gcc.h ****  *
  18:Drivers/CMSIS/Include/cmsis_gcc.h ****  * Unless required by applicable law or agreed to in writing, software
  19:Drivers/CMSIS/Include/cmsis_gcc.h ****  * distributed under the License is distributed on an AS IS BASIS, WITHOUT
  20:Drivers/CMSIS/Include/cmsis_gcc.h ****  * WARRANTIES OR CONDITIONS OF ANY KIND, either express or implied.
  21:Drivers/CMSIS/Include/cmsis_gcc.h ****  * See the License for the specific language governing permissions and
  22:Drivers/CMSIS/Include/cmsis_gcc.h ****  * limitations under the License.
  23:Drivers/CMSIS/Include/cmsis_gcc.h ****  */
  24:Drivers/CMSIS/Include/cmsis_gcc.h **** 
  25:Drivers/CMSIS/Include/cmsis_gcc.h **** #ifndef __CMSIS_GCC_H
  26:Drivers/CMSIS/Include/cmsis_gcc.h **** #define __CMSIS_GCC_H
  27:Drivers/CMSIS/Include/cmsis_gcc.h **** 
  28:Drivers/CMSIS/Include/cmsis_gcc.h **** /* ignore some GCC warnings */
  29:Drivers/CMSIS/Include/cmsis_gcc.h **** #pragma GCC diagnostic push
  30:Drivers/CMSIS/Include/cmsis_gcc.h **** #pragma GCC diagnostic ignored "-Wsign-conversion"
  31:Drivers/CMSIS/Include/cmsis_gcc.h **** #pragma GCC diagnostic ignored "-Wconversion"
  32:Drivers/CMSIS/Include/cmsis_gcc.h **** #pragma GCC diagnostic ignored "-Wunused-parameter"
  33:Drivers/CMSIS/Include/cmsis_gcc.h **** 
  34:Drivers/CMSIS/Include/cmsis_gcc.h **** /* Fallback for __has_builtin */
  35:Drivers/CMSIS/Include/cmsis_gcc.h **** #ifndef __has_builtin
  36:Drivers/CMSIS/Include/cmsis_gcc.h ****   #define __has_builtin(x) (0)
  37:Drivers/CMSIS/Include/cmsis_gcc.h **** #endif
  38:Drivers/CMSIS/Include/cmsis_gcc.h **** 
  39:Drivers/CMSIS/Include/cmsis_gcc.h **** /* CMSIS compiler specific defines */
  40:Drivers/CMSIS/Include/cmsis_gcc.h **** #ifndef   __ASM
  41:Drivers/CMSIS/Include/cmsis_gcc.h ****   #define __ASM                                  __asm
  42:Drivers/CMSIS/Include/cmsis_gcc.h **** #endif
  43:Drivers/CMSIS/Include/cmsis_gcc.h **** #ifndef   __INLINE
  44:Drivers/CMSIS/Include/cmsis_gcc.h ****   #define __INLINE                               inline
  45:Drivers/CMSIS/Include/cmsis_gcc.h **** #endif
  46:Drivers/CMSIS/Include/cmsis_gcc.h **** #ifndef   __STATIC_INLINE
  47:Drivers/CMSIS/Include/cmsis_gcc.h ****   #define __STATIC_INLINE                        static inline
  48:Drivers/CMSIS/Include/cmsis_gcc.h **** #endif
  49:Drivers/CMSIS/Include/cmsis_gcc.h **** #ifndef   __STATIC_FORCEINLINE                 
  50:Drivers/CMSIS/Include/cmsis_gcc.h ****   #define __STATIC_FORCEINLINE                   __attribute__((always_inline)) static inline
  51:Drivers/CMSIS/Include/cmsis_gcc.h **** #endif                                           
  52:Drivers/CMSIS/Include/cmsis_gcc.h **** #ifndef   __NO_RETURN
  53:Drivers/CMSIS/Include/cmsis_gcc.h ****   #define __NO_RETURN                            __attribute__((__noreturn__))
  54:Drivers/CMSIS/Include/cmsis_gcc.h **** #endif
  55:Drivers/CMSIS/Include/cmsis_gcc.h **** #ifndef   __USED
  56:Drivers/CMSIS/Include/cmsis_gcc.h ****   #define __USED                                 __attribute__((used))
  57:Drivers/CMSIS/Include/cmsis_gcc.h **** #endif
  58:Drivers/CMSIS/Include/cmsis_gcc.h **** #ifndef   __WEAK
  59:Drivers/CMSIS/Include/cmsis_gcc.h ****   #define __WEAK                                 __attribute__((weak))
  60:Drivers/CMSIS/Include/cmsis_gcc.h **** #endif
  61:Drivers/CMSIS/Include/cmsis_gcc.h **** #ifndef   __PACKED
  62:Drivers/CMSIS/Include/cmsis_gcc.h ****   #define __PACKED                               __attribute__((packed, aligned(1)))
  63:Drivers/CMSIS/Include/cmsis_gcc.h **** #endif
  64:Drivers/CMSIS/Include/cmsis_gcc.h **** #ifndef   __PACKED_STRUCT
  65:Drivers/CMSIS/Include/cmsis_gcc.h ****   #define __PACKED_STRUCT                        struct __attribute__((packed, aligned(1)))
  66:Drivers/CMSIS/Include/cmsis_gcc.h **** #endif
  67:Drivers/CMSIS/Include/cmsis_gcc.h **** #ifndef   __PACKED_UNION
  68:Drivers/CMSIS/Include/cmsis_gcc.h ****   #define __PACKED_UNION                         union __attribute__((packed, aligned(1)))
  69:Drivers/CMSIS/Include/cmsis_gcc.h **** #endif
  70:Drivers/CMSIS/Include/cmsis_gcc.h **** #ifndef   __UNALIGNED_UINT32        /* deprecated */
  71:Drivers/CMSIS/Include/cmsis_gcc.h ****   #pragma GCC diagnostic push
ARM GAS  C:\Users\NICHOL~2\AppData\Local\Temp\ccNGQVCL.s 			page 7


  72:Drivers/CMSIS/Include/cmsis_gcc.h ****   #pragma GCC diagnostic ignored "-Wpacked"
  73:Drivers/CMSIS/Include/cmsis_gcc.h ****   #pragma GCC diagnostic ignored "-Wattributes"
  74:Drivers/CMSIS/Include/cmsis_gcc.h ****   struct __attribute__((packed)) T_UINT32 { uint32_t v; };
  75:Drivers/CMSIS/Include/cmsis_gcc.h ****   #pragma GCC diagnostic pop
  76:Drivers/CMSIS/Include/cmsis_gcc.h ****   #define __UNALIGNED_UINT32(x)                  (((struct T_UINT32 *)(x))->v)
  77:Drivers/CMSIS/Include/cmsis_gcc.h **** #endif
  78:Drivers/CMSIS/Include/cmsis_gcc.h **** #ifndef   __UNALIGNED_UINT16_WRITE
  79:Drivers/CMSIS/Include/cmsis_gcc.h ****   #pragma GCC diagnostic push
  80:Drivers/CMSIS/Include/cmsis_gcc.h ****   #pragma GCC diagnostic ignored "-Wpacked"
  81:Drivers/CMSIS/Include/cmsis_gcc.h ****   #pragma GCC diagnostic ignored "-Wattributes"
  82:Drivers/CMSIS/Include/cmsis_gcc.h ****   __PACKED_STRUCT T_UINT16_WRITE { uint16_t v; };
  83:Drivers/CMSIS/Include/cmsis_gcc.h ****   #pragma GCC diagnostic pop
  84:Drivers/CMSIS/Include/cmsis_gcc.h ****   #define __UNALIGNED_UINT16_WRITE(addr, val)    (void)((((struct T_UINT16_WRITE *)(void *)(addr))-
  85:Drivers/CMSIS/Include/cmsis_gcc.h **** #endif
  86:Drivers/CMSIS/Include/cmsis_gcc.h **** #ifndef   __UNALIGNED_UINT16_READ
  87:Drivers/CMSIS/Include/cmsis_gcc.h ****   #pragma GCC diagnostic push
  88:Drivers/CMSIS/Include/cmsis_gcc.h ****   #pragma GCC diagnostic ignored "-Wpacked"
  89:Drivers/CMSIS/Include/cmsis_gcc.h ****   #pragma GCC diagnostic ignored "-Wattributes"
  90:Drivers/CMSIS/Include/cmsis_gcc.h ****   __PACKED_STRUCT T_UINT16_READ { uint16_t v; };
  91:Drivers/CMSIS/Include/cmsis_gcc.h ****   #pragma GCC diagnostic pop
  92:Drivers/CMSIS/Include/cmsis_gcc.h ****   #define __UNALIGNED_UINT16_READ(addr)          (((const struct T_UINT16_READ *)(const void *)(add
  93:Drivers/CMSIS/Include/cmsis_gcc.h **** #endif
  94:Drivers/CMSIS/Include/cmsis_gcc.h **** #ifndef   __UNALIGNED_UINT32_WRITE
  95:Drivers/CMSIS/Include/cmsis_gcc.h ****   #pragma GCC diagnostic push
  96:Drivers/CMSIS/Include/cmsis_gcc.h ****   #pragma GCC diagnostic ignored "-Wpacked"
  97:Drivers/CMSIS/Include/cmsis_gcc.h ****   #pragma GCC diagnostic ignored "-Wattributes"
  98:Drivers/CMSIS/Include/cmsis_gcc.h ****   __PACKED_STRUCT T_UINT32_WRITE { uint32_t v; };
  99:Drivers/CMSIS/Include/cmsis_gcc.h ****   #pragma GCC diagnostic pop
 100:Drivers/CMSIS/Include/cmsis_gcc.h ****   #define __UNALIGNED_UINT32_WRITE(addr, val)    (void)((((struct T_UINT32_WRITE *)(void *)(addr))-
 101:Drivers/CMSIS/Include/cmsis_gcc.h **** #endif
 102:Drivers/CMSIS/Include/cmsis_gcc.h **** #ifndef   __UNALIGNED_UINT32_READ
 103:Drivers/CMSIS/Include/cmsis_gcc.h ****   #pragma GCC diagnostic push
 104:Drivers/CMSIS/Include/cmsis_gcc.h ****   #pragma GCC diagnostic ignored "-Wpacked"
 105:Drivers/CMSIS/Include/cmsis_gcc.h ****   #pragma GCC diagnostic ignored "-Wattributes"
 106:Drivers/CMSIS/Include/cmsis_gcc.h ****   __PACKED_STRUCT T_UINT32_READ { uint32_t v; };
 107:Drivers/CMSIS/Include/cmsis_gcc.h ****   #pragma GCC diagnostic pop
 108:Drivers/CMSIS/Include/cmsis_gcc.h ****   #define __UNALIGNED_UINT32_READ(addr)          (((const struct T_UINT32_READ *)(const void *)(add
 109:Drivers/CMSIS/Include/cmsis_gcc.h **** #endif
 110:Drivers/CMSIS/Include/cmsis_gcc.h **** #ifndef   __ALIGNED
 111:Drivers/CMSIS/Include/cmsis_gcc.h ****   #define __ALIGNED(x)                           __attribute__((aligned(x)))
 112:Drivers/CMSIS/Include/cmsis_gcc.h **** #endif
 113:Drivers/CMSIS/Include/cmsis_gcc.h **** #ifndef   __RESTRICT
 114:Drivers/CMSIS/Include/cmsis_gcc.h ****   #define __RESTRICT                             __restrict
 115:Drivers/CMSIS/Include/cmsis_gcc.h **** #endif
 116:Drivers/CMSIS/Include/cmsis_gcc.h **** 
 117:Drivers/CMSIS/Include/cmsis_gcc.h **** 
 118:Drivers/CMSIS/Include/cmsis_gcc.h **** /* ###########################  Core Function Access  ########################### */
 119:Drivers/CMSIS/Include/cmsis_gcc.h **** /** \ingroup  CMSIS_Core_FunctionInterface
 120:Drivers/CMSIS/Include/cmsis_gcc.h ****     \defgroup CMSIS_Core_RegAccFunctions CMSIS Core Register Access Functions
 121:Drivers/CMSIS/Include/cmsis_gcc.h ****   @{
 122:Drivers/CMSIS/Include/cmsis_gcc.h ****  */
 123:Drivers/CMSIS/Include/cmsis_gcc.h **** 
 124:Drivers/CMSIS/Include/cmsis_gcc.h **** /**
 125:Drivers/CMSIS/Include/cmsis_gcc.h ****   \brief   Enable IRQ Interrupts
 126:Drivers/CMSIS/Include/cmsis_gcc.h ****   \details Enables IRQ interrupts by clearing the I-bit in the CPSR.
 127:Drivers/CMSIS/Include/cmsis_gcc.h ****            Can only be executed in Privileged modes.
 128:Drivers/CMSIS/Include/cmsis_gcc.h ****  */
ARM GAS  C:\Users\NICHOL~2\AppData\Local\Temp\ccNGQVCL.s 			page 8


 129:Drivers/CMSIS/Include/cmsis_gcc.h **** __STATIC_FORCEINLINE void __enable_irq(void)
 130:Drivers/CMSIS/Include/cmsis_gcc.h **** {
 131:Drivers/CMSIS/Include/cmsis_gcc.h ****   __ASM volatile ("cpsie i" : : : "memory");
 132:Drivers/CMSIS/Include/cmsis_gcc.h **** }
 133:Drivers/CMSIS/Include/cmsis_gcc.h **** 
 134:Drivers/CMSIS/Include/cmsis_gcc.h **** 
 135:Drivers/CMSIS/Include/cmsis_gcc.h **** /**
 136:Drivers/CMSIS/Include/cmsis_gcc.h ****   \brief   Disable IRQ Interrupts
 137:Drivers/CMSIS/Include/cmsis_gcc.h ****   \details Disables IRQ interrupts by setting the I-bit in the CPSR.
 138:Drivers/CMSIS/Include/cmsis_gcc.h ****            Can only be executed in Privileged modes.
 139:Drivers/CMSIS/Include/cmsis_gcc.h ****  */
 140:Drivers/CMSIS/Include/cmsis_gcc.h **** __STATIC_FORCEINLINE void __disable_irq(void)
  39              		.loc 2 140 27 view .LVU2
  40              	.LBB5:
 141:Drivers/CMSIS/Include/cmsis_gcc.h **** {
 142:Drivers/CMSIS/Include/cmsis_gcc.h ****   __ASM volatile ("cpsid i" : : : "memory");
  41              		.loc 2 142 3 view .LVU3
  42              		.syntax unified
  43              	@ 142 "Drivers/CMSIS/Include/cmsis_gcc.h" 1
  44 0000 72B6     		cpsid i
  45              	@ 0 "" 2
  46              		.thumb
  47              		.syntax unified
  48              	.L2:
  49              	.LBE5:
  50              	.LBE4:
 235:Src/main.c    ****   while (1)
  51              		.loc 1 235 3 discriminator 1 view .LVU4
 236:Src/main.c    ****   {
 237:Src/main.c    ****   }
  52              		.loc 1 237 3 discriminator 1 view .LVU5
 235:Src/main.c    ****   while (1)
  53              		.loc 1 235 9 discriminator 1 view .LVU6
  54 0002 FEE7     		b	.L2
  55              		.cfi_endproc
  56              	.LFE127:
  58              		.section	.text.MX_RTC_Init,"ax",%progbits
  59              		.align	1
  60              		.syntax unified
  61              		.thumb
  62              		.thumb_func
  64              	MX_RTC_Init:
  65              	.LFB125:
 156:Src/main.c    **** 
  66              		.loc 1 156 1 view -0
  67              		.cfi_startproc
  68              		@ args = 0, pretend = 0, frame = 0
  69              		@ frame_needed = 0, uses_anonymous_args = 0
  70 0000 08B5     		push	{r3, lr}
  71              	.LCFI0:
  72              		.cfi_def_cfa_offset 8
  73              		.cfi_offset 3, -8
  74              		.cfi_offset 14, -4
 167:Src/main.c    ****   hrtc.Init.HourFormat = RTC_HOURFORMAT_24;
  75              		.loc 1 167 3 view .LVU8
 167:Src/main.c    ****   hrtc.Init.HourFormat = RTC_HOURFORMAT_24;
  76              		.loc 1 167 17 is_stmt 0 view .LVU9
ARM GAS  C:\Users\NICHOL~2\AppData\Local\Temp\ccNGQVCL.s 			page 9


  77 0002 0948     		ldr	r0, .L7
  78 0004 094B     		ldr	r3, .L7+4
  79 0006 0360     		str	r3, [r0]
 168:Src/main.c    ****   hrtc.Init.AsynchPrediv = 127;
  80              		.loc 1 168 3 is_stmt 1 view .LVU10
 168:Src/main.c    ****   hrtc.Init.AsynchPrediv = 127;
  81              		.loc 1 168 24 is_stmt 0 view .LVU11
  82 0008 0023     		movs	r3, #0
  83 000a 4360     		str	r3, [r0, #4]
 169:Src/main.c    ****   hrtc.Init.SynchPrediv = 255;
  84              		.loc 1 169 3 is_stmt 1 view .LVU12
 169:Src/main.c    ****   hrtc.Init.SynchPrediv = 255;
  85              		.loc 1 169 26 is_stmt 0 view .LVU13
  86 000c 7F22     		movs	r2, #127
  87 000e 8260     		str	r2, [r0, #8]
 170:Src/main.c    ****   hrtc.Init.OutPut = RTC_OUTPUT_DISABLE;
  88              		.loc 1 170 3 is_stmt 1 view .LVU14
 170:Src/main.c    ****   hrtc.Init.OutPut = RTC_OUTPUT_DISABLE;
  89              		.loc 1 170 25 is_stmt 0 view .LVU15
  90 0010 FF22     		movs	r2, #255
  91 0012 C260     		str	r2, [r0, #12]
 171:Src/main.c    ****   hrtc.Init.OutPutPolarity = RTC_OUTPUT_POLARITY_HIGH;
  92              		.loc 1 171 3 is_stmt 1 view .LVU16
 171:Src/main.c    ****   hrtc.Init.OutPutPolarity = RTC_OUTPUT_POLARITY_HIGH;
  93              		.loc 1 171 20 is_stmt 0 view .LVU17
  94 0014 0361     		str	r3, [r0, #16]
 172:Src/main.c    ****   hrtc.Init.OutPutType = RTC_OUTPUT_TYPE_OPENDRAIN;
  95              		.loc 1 172 3 is_stmt 1 view .LVU18
 172:Src/main.c    ****   hrtc.Init.OutPutType = RTC_OUTPUT_TYPE_OPENDRAIN;
  96              		.loc 1 172 28 is_stmt 0 view .LVU19
  97 0016 4361     		str	r3, [r0, #20]
 173:Src/main.c    ****   if (HAL_RTC_Init(&hrtc) != HAL_OK)
  98              		.loc 1 173 3 is_stmt 1 view .LVU20
 173:Src/main.c    ****   if (HAL_RTC_Init(&hrtc) != HAL_OK)
  99              		.loc 1 173 24 is_stmt 0 view .LVU21
 100 0018 8361     		str	r3, [r0, #24]
 174:Src/main.c    ****   {
 101              		.loc 1 174 3 is_stmt 1 view .LVU22
 174:Src/main.c    ****   {
 102              		.loc 1 174 7 is_stmt 0 view .LVU23
 103 001a FFF7FEFF 		bl	HAL_RTC_Init
 104              	.LVL0:
 174:Src/main.c    ****   {
 105              		.loc 1 174 6 view .LVU24
 106 001e 00B9     		cbnz	r0, .L6
 182:Src/main.c    **** 
 107              		.loc 1 182 1 view .LVU25
 108 0020 08BD     		pop	{r3, pc}
 109              	.L6:
 176:Src/main.c    ****   }
 110              		.loc 1 176 5 is_stmt 1 view .LVU26
 111 0022 FFF7FEFF 		bl	Error_Handler
 112              	.LVL1:
 113              	.L8:
 114 0026 00BF     		.align	2
 115              	.L7:
 116 0028 00000000 		.word	.LANCHOR0
ARM GAS  C:\Users\NICHOL~2\AppData\Local\Temp\ccNGQVCL.s 			page 10


 117 002c 00280040 		.word	1073752064
 118              		.cfi_endproc
 119              	.LFE125:
 121              		.section	.text.MX_TIM6_Init,"ax",%progbits
 122              		.align	1
 123              		.syntax unified
 124              		.thumb
 125              		.thumb_func
 127              	MX_TIM6_Init:
 128              	.LFB126:
 190:Src/main.c    **** 
 129              		.loc 1 190 1 view -0
 130              		.cfi_startproc
 131              		@ args = 0, pretend = 0, frame = 16
 132              		@ frame_needed = 0, uses_anonymous_args = 0
 133 0000 00B5     		push	{lr}
 134              	.LCFI1:
 135              		.cfi_def_cfa_offset 4
 136              		.cfi_offset 14, -4
 137 0002 85B0     		sub	sp, sp, #20
 138              	.LCFI2:
 139              		.cfi_def_cfa_offset 24
 196:Src/main.c    **** 
 140              		.loc 1 196 3 view .LVU28
 196:Src/main.c    **** 
 141              		.loc 1 196 27 is_stmt 0 view .LVU29
 142 0004 0023     		movs	r3, #0
 143 0006 0193     		str	r3, [sp, #4]
 144 0008 0293     		str	r3, [sp, #8]
 145 000a 0393     		str	r3, [sp, #12]
 201:Src/main.c    ****   htim6.Init.Prescaler = 0;
 146              		.loc 1 201 3 is_stmt 1 view .LVU30
 201:Src/main.c    ****   htim6.Init.Prescaler = 0;
 147              		.loc 1 201 18 is_stmt 0 view .LVU31
 148 000c 0D48     		ldr	r0, .L15
 149 000e 0E4A     		ldr	r2, .L15+4
 150 0010 0260     		str	r2, [r0]
 202:Src/main.c    ****   htim6.Init.CounterMode = TIM_COUNTERMODE_UP;
 151              		.loc 1 202 3 is_stmt 1 view .LVU32
 202:Src/main.c    ****   htim6.Init.CounterMode = TIM_COUNTERMODE_UP;
 152              		.loc 1 202 24 is_stmt 0 view .LVU33
 153 0012 4360     		str	r3, [r0, #4]
 203:Src/main.c    ****   htim6.Init.Period = 65535;
 154              		.loc 1 203 3 is_stmt 1 view .LVU34
 203:Src/main.c    ****   htim6.Init.Period = 65535;
 155              		.loc 1 203 26 is_stmt 0 view .LVU35
 156 0014 8360     		str	r3, [r0, #8]
 204:Src/main.c    ****   htim6.Init.AutoReloadPreload = TIM_AUTORELOAD_PRELOAD_DISABLE;
 157              		.loc 1 204 3 is_stmt 1 view .LVU36
 204:Src/main.c    ****   htim6.Init.AutoReloadPreload = TIM_AUTORELOAD_PRELOAD_DISABLE;
 158              		.loc 1 204 21 is_stmt 0 view .LVU37
 159 0016 4FF6FF72 		movw	r2, #65535
 160 001a C260     		str	r2, [r0, #12]
 205:Src/main.c    ****   if (HAL_TIM_Base_Init(&htim6) != HAL_OK)
 161              		.loc 1 205 3 is_stmt 1 view .LVU38
 205:Src/main.c    ****   if (HAL_TIM_Base_Init(&htim6) != HAL_OK)
 162              		.loc 1 205 32 is_stmt 0 view .LVU39
ARM GAS  C:\Users\NICHOL~2\AppData\Local\Temp\ccNGQVCL.s 			page 11


 163 001c 8361     		str	r3, [r0, #24]
 206:Src/main.c    ****   {
 164              		.loc 1 206 3 is_stmt 1 view .LVU40
 206:Src/main.c    ****   {
 165              		.loc 1 206 7 is_stmt 0 view .LVU41
 166 001e FFF7FEFF 		bl	HAL_TIM_Base_Init
 167              	.LVL2:
 206:Src/main.c    ****   {
 168              		.loc 1 206 6 view .LVU42
 169 0022 50B9     		cbnz	r0, .L13
 210:Src/main.c    ****   sMasterConfig.MasterSlaveMode = TIM_MASTERSLAVEMODE_DISABLE;
 170              		.loc 1 210 3 is_stmt 1 view .LVU43
 210:Src/main.c    ****   sMasterConfig.MasterSlaveMode = TIM_MASTERSLAVEMODE_DISABLE;
 171              		.loc 1 210 37 is_stmt 0 view .LVU44
 172 0024 0023     		movs	r3, #0
 173 0026 0193     		str	r3, [sp, #4]
 211:Src/main.c    ****   if (HAL_TIMEx_MasterConfigSynchronization(&htim6, &sMasterConfig) != HAL_OK)
 174              		.loc 1 211 3 is_stmt 1 view .LVU45
 211:Src/main.c    ****   if (HAL_TIMEx_MasterConfigSynchronization(&htim6, &sMasterConfig) != HAL_OK)
 175              		.loc 1 211 33 is_stmt 0 view .LVU46
 176 0028 0393     		str	r3, [sp, #12]
 212:Src/main.c    ****   {
 177              		.loc 1 212 3 is_stmt 1 view .LVU47
 212:Src/main.c    ****   {
 178              		.loc 1 212 7 is_stmt 0 view .LVU48
 179 002a 01A9     		add	r1, sp, #4
 180 002c 0548     		ldr	r0, .L15
 181 002e FFF7FEFF 		bl	HAL_TIMEx_MasterConfigSynchronization
 182              	.LVL3:
 212:Src/main.c    ****   {
 183              		.loc 1 212 6 view .LVU49
 184 0032 20B9     		cbnz	r0, .L14
 220:Src/main.c    **** 
 185              		.loc 1 220 1 view .LVU50
 186 0034 05B0     		add	sp, sp, #20
 187              	.LCFI3:
 188              		.cfi_remember_state
 189              		.cfi_def_cfa_offset 4
 190              		@ sp needed
 191 0036 5DF804FB 		ldr	pc, [sp], #4
 192              	.L13:
 193              	.LCFI4:
 194              		.cfi_restore_state
 208:Src/main.c    ****   }
 195              		.loc 1 208 5 is_stmt 1 view .LVU51
 196 003a FFF7FEFF 		bl	Error_Handler
 197              	.LVL4:
 198              	.L14:
 214:Src/main.c    ****   }
 199              		.loc 1 214 5 view .LVU52
 200 003e FFF7FEFF 		bl	Error_Handler
 201              	.LVL5:
 202              	.L16:
 203 0042 00BF     		.align	2
 204              	.L15:
 205 0044 00000000 		.word	.LANCHOR1
 206 0048 00100040 		.word	1073745920
ARM GAS  C:\Users\NICHOL~2\AppData\Local\Temp\ccNGQVCL.s 			page 12


 207              		.cfi_endproc
 208              	.LFE126:
 210              		.section	.text.SystemClock_Config,"ax",%progbits
 211              		.align	1
 212              		.global	SystemClock_Config
 213              		.syntax unified
 214              		.thumb
 215              		.thumb_func
 217              	SystemClock_Config:
 218              	.LFB124:
 112:Src/main.c    ****   RCC_OscInitTypeDef RCC_OscInitStruct = {0};
 219              		.loc 1 112 1 view -0
 220              		.cfi_startproc
 221              		@ args = 0, pretend = 0, frame = 88
 222              		@ frame_needed = 0, uses_anonymous_args = 0
 223 0000 00B5     		push	{lr}
 224              	.LCFI5:
 225              		.cfi_def_cfa_offset 4
 226              		.cfi_offset 14, -4
 227 0002 97B0     		sub	sp, sp, #92
 228              	.LCFI6:
 229              		.cfi_def_cfa_offset 96
 113:Src/main.c    ****   RCC_ClkInitTypeDef RCC_ClkInitStruct = {0};
 230              		.loc 1 113 3 view .LVU54
 113:Src/main.c    ****   RCC_ClkInitTypeDef RCC_ClkInitStruct = {0};
 231              		.loc 1 113 22 is_stmt 0 view .LVU55
 232 0004 2822     		movs	r2, #40
 233 0006 0021     		movs	r1, #0
 234 0008 0CA8     		add	r0, sp, #48
 235 000a FFF7FEFF 		bl	memset
 236              	.LVL6:
 114:Src/main.c    ****   RCC_PeriphCLKInitTypeDef PeriphClkInit = {0};
 237              		.loc 1 114 3 is_stmt 1 view .LVU56
 114:Src/main.c    ****   RCC_PeriphCLKInitTypeDef PeriphClkInit = {0};
 238              		.loc 1 114 22 is_stmt 0 view .LVU57
 239 000e 0023     		movs	r3, #0
 240 0010 0793     		str	r3, [sp, #28]
 241 0012 0893     		str	r3, [sp, #32]
 242 0014 0993     		str	r3, [sp, #36]
 243 0016 0A93     		str	r3, [sp, #40]
 244 0018 0B93     		str	r3, [sp, #44]
 115:Src/main.c    **** 
 245              		.loc 1 115 3 is_stmt 1 view .LVU58
 115:Src/main.c    **** 
 246              		.loc 1 115 28 is_stmt 0 view .LVU59
 247 001a 0193     		str	r3, [sp, #4]
 248 001c 0293     		str	r3, [sp, #8]
 249 001e 0393     		str	r3, [sp, #12]
 250 0020 0493     		str	r3, [sp, #16]
 251 0022 0593     		str	r3, [sp, #20]
 252 0024 0693     		str	r3, [sp, #24]
 120:Src/main.c    ****   RCC_OscInitStruct.HSIState = RCC_HSI_ON;
 253              		.loc 1 120 3 is_stmt 1 view .LVU60
 120:Src/main.c    ****   RCC_OscInitStruct.HSIState = RCC_HSI_ON;
 254              		.loc 1 120 36 is_stmt 0 view .LVU61
 255 0026 0A23     		movs	r3, #10
 256 0028 0C93     		str	r3, [sp, #48]
ARM GAS  C:\Users\NICHOL~2\AppData\Local\Temp\ccNGQVCL.s 			page 13


 121:Src/main.c    ****   RCC_OscInitStruct.HSICalibrationValue = RCC_HSICALIBRATION_DEFAULT;
 257              		.loc 1 121 3 is_stmt 1 view .LVU62
 121:Src/main.c    ****   RCC_OscInitStruct.HSICalibrationValue = RCC_HSICALIBRATION_DEFAULT;
 258              		.loc 1 121 30 is_stmt 0 view .LVU63
 259 002a 0123     		movs	r3, #1
 260 002c 1093     		str	r3, [sp, #64]
 122:Src/main.c    ****   RCC_OscInitStruct.LSIState = RCC_LSI_ON;
 261              		.loc 1 122 3 is_stmt 1 view .LVU64
 122:Src/main.c    ****   RCC_OscInitStruct.LSIState = RCC_LSI_ON;
 262              		.loc 1 122 41 is_stmt 0 view .LVU65
 263 002e 1022     		movs	r2, #16
 264 0030 1192     		str	r2, [sp, #68]
 123:Src/main.c    ****   RCC_OscInitStruct.PLL.PLLState = RCC_PLL_NONE;
 265              		.loc 1 123 3 is_stmt 1 view .LVU66
 123:Src/main.c    ****   RCC_OscInitStruct.PLL.PLLState = RCC_PLL_NONE;
 266              		.loc 1 123 30 is_stmt 0 view .LVU67
 267 0032 1293     		str	r3, [sp, #72]
 124:Src/main.c    ****   if (HAL_RCC_OscConfig(&RCC_OscInitStruct) != HAL_OK)
 268              		.loc 1 124 3 is_stmt 1 view .LVU68
 125:Src/main.c    ****   {
 269              		.loc 1 125 3 view .LVU69
 125:Src/main.c    ****   {
 270              		.loc 1 125 7 is_stmt 0 view .LVU70
 271 0034 0CA8     		add	r0, sp, #48
 272 0036 FFF7FEFF 		bl	HAL_RCC_OscConfig
 273              	.LVL7:
 125:Src/main.c    ****   {
 274              		.loc 1 125 6 view .LVU71
 275 003a B8B9     		cbnz	r0, .L22
 131:Src/main.c    ****                               |RCC_CLOCKTYPE_PCLK1|RCC_CLOCKTYPE_PCLK2;
 276              		.loc 1 131 3 is_stmt 1 view .LVU72
 131:Src/main.c    ****                               |RCC_CLOCKTYPE_PCLK1|RCC_CLOCKTYPE_PCLK2;
 277              		.loc 1 131 31 is_stmt 0 view .LVU73
 278 003c 0F23     		movs	r3, #15
 279 003e 0793     		str	r3, [sp, #28]
 133:Src/main.c    ****   RCC_ClkInitStruct.AHBCLKDivider = RCC_SYSCLK_DIV1;
 280              		.loc 1 133 3 is_stmt 1 view .LVU74
 133:Src/main.c    ****   RCC_ClkInitStruct.AHBCLKDivider = RCC_SYSCLK_DIV1;
 281              		.loc 1 133 34 is_stmt 0 view .LVU75
 282 0040 0021     		movs	r1, #0
 283 0042 0891     		str	r1, [sp, #32]
 134:Src/main.c    ****   RCC_ClkInitStruct.APB1CLKDivider = RCC_HCLK_DIV1;
 284              		.loc 1 134 3 is_stmt 1 view .LVU76
 134:Src/main.c    ****   RCC_ClkInitStruct.APB1CLKDivider = RCC_HCLK_DIV1;
 285              		.loc 1 134 35 is_stmt 0 view .LVU77
 286 0044 0991     		str	r1, [sp, #36]
 135:Src/main.c    ****   RCC_ClkInitStruct.APB2CLKDivider = RCC_HCLK_DIV1;
 287              		.loc 1 135 3 is_stmt 1 view .LVU78
 135:Src/main.c    ****   RCC_ClkInitStruct.APB2CLKDivider = RCC_HCLK_DIV1;
 288              		.loc 1 135 36 is_stmt 0 view .LVU79
 289 0046 0A91     		str	r1, [sp, #40]
 136:Src/main.c    **** 
 290              		.loc 1 136 3 is_stmt 1 view .LVU80
 136:Src/main.c    **** 
 291              		.loc 1 136 36 is_stmt 0 view .LVU81
 292 0048 0B91     		str	r1, [sp, #44]
 138:Src/main.c    ****   {
ARM GAS  C:\Users\NICHOL~2\AppData\Local\Temp\ccNGQVCL.s 			page 14


 293              		.loc 1 138 3 is_stmt 1 view .LVU82
 138:Src/main.c    ****   {
 294              		.loc 1 138 7 is_stmt 0 view .LVU83
 295 004a 07A8     		add	r0, sp, #28
 296 004c FFF7FEFF 		bl	HAL_RCC_ClockConfig
 297              	.LVL8:
 138:Src/main.c    ****   {
 298              		.loc 1 138 6 view .LVU84
 299 0050 70B9     		cbnz	r0, .L23
 142:Src/main.c    ****   PeriphClkInit.RTCClockSelection = RCC_RTCCLKSOURCE_LSI;
 300              		.loc 1 142 3 is_stmt 1 view .LVU85
 142:Src/main.c    ****   PeriphClkInit.RTCClockSelection = RCC_RTCCLKSOURCE_LSI;
 301              		.loc 1 142 38 is_stmt 0 view .LVU86
 302 0052 4FF48033 		mov	r3, #65536
 303 0056 0193     		str	r3, [sp, #4]
 143:Src/main.c    ****   if (HAL_RCCEx_PeriphCLKConfig(&PeriphClkInit) != HAL_OK)
 304              		.loc 1 143 3 is_stmt 1 view .LVU87
 143:Src/main.c    ****   if (HAL_RCCEx_PeriphCLKConfig(&PeriphClkInit) != HAL_OK)
 305              		.loc 1 143 35 is_stmt 0 view .LVU88
 306 0058 4FF40073 		mov	r3, #512
 307 005c 0293     		str	r3, [sp, #8]
 144:Src/main.c    ****   {
 308              		.loc 1 144 3 is_stmt 1 view .LVU89
 144:Src/main.c    ****   {
 309              		.loc 1 144 7 is_stmt 0 view .LVU90
 310 005e 01A8     		add	r0, sp, #4
 311 0060 FFF7FEFF 		bl	HAL_RCCEx_PeriphCLKConfig
 312              	.LVL9:
 144:Src/main.c    ****   {
 313              		.loc 1 144 6 view .LVU91
 314 0064 30B9     		cbnz	r0, .L24
 148:Src/main.c    **** 
 315              		.loc 1 148 1 view .LVU92
 316 0066 17B0     		add	sp, sp, #92
 317              	.LCFI7:
 318              		.cfi_remember_state
 319              		.cfi_def_cfa_offset 4
 320              		@ sp needed
 321 0068 5DF804FB 		ldr	pc, [sp], #4
 322              	.L22:
 323              	.LCFI8:
 324              		.cfi_restore_state
 127:Src/main.c    ****   }
 325              		.loc 1 127 5 is_stmt 1 view .LVU93
 326 006c FFF7FEFF 		bl	Error_Handler
 327              	.LVL10:
 328              	.L23:
 140:Src/main.c    ****   }
 329              		.loc 1 140 5 view .LVU94
 330 0070 FFF7FEFF 		bl	Error_Handler
 331              	.LVL11:
 332              	.L24:
 146:Src/main.c    ****   }
 333              		.loc 1 146 5 view .LVU95
 334 0074 FFF7FEFF 		bl	Error_Handler
 335              	.LVL12:
 336              		.cfi_endproc
ARM GAS  C:\Users\NICHOL~2\AppData\Local\Temp\ccNGQVCL.s 			page 15


 337              	.LFE124:
 339              		.section	.text.main,"ax",%progbits
 340              		.align	1
 341              		.global	main
 342              		.syntax unified
 343              		.thumb
 344              		.thumb_func
 346              	main:
 347              	.LFB123:
  68:Src/main.c    ****   /* USER CODE BEGIN 1 */
 348              		.loc 1 68 1 view -0
 349              		.cfi_startproc
 350              		@ Volatile: function does not return.
 351              		@ args = 0, pretend = 0, frame = 0
 352              		@ frame_needed = 0, uses_anonymous_args = 0
 353 0000 08B5     		push	{r3, lr}
 354              	.LCFI9:
 355              		.cfi_def_cfa_offset 8
 356              		.cfi_offset 3, -8
 357              		.cfi_offset 14, -4
  76:Src/main.c    **** 
 358              		.loc 1 76 3 view .LVU97
 359 0002 FFF7FEFF 		bl	HAL_Init
 360              	.LVL13:
  83:Src/main.c    **** 
 361              		.loc 1 83 3 view .LVU98
 362 0006 FFF7FEFF 		bl	SystemClock_Config
 363              	.LVL14:
  90:Src/main.c    ****   MX_TIM6_Init();
 364              		.loc 1 90 3 view .LVU99
 365 000a FFF7FEFF 		bl	MX_RTC_Init
 366              	.LVL15:
  91:Src/main.c    ****   /* USER CODE BEGIN 2 */
 367              		.loc 1 91 3 view .LVU100
 368 000e FFF7FEFF 		bl	MX_TIM6_Init
 369              	.LVL16:
 370              	.L26:
  98:Src/main.c    ****   {
 371              		.loc 1 98 3 discriminator 1 view .LVU101
 103:Src/main.c    ****   /* USER CODE END 3 */
 372              		.loc 1 103 3 discriminator 1 view .LVU102
  98:Src/main.c    ****   {
 373              		.loc 1 98 9 discriminator 1 view .LVU103
 374 0012 FEE7     		b	.L26
 375              		.cfi_endproc
 376              	.LFE123:
 378              		.global	htim6
 379              		.global	hrtc
 380              		.section	.bss.hrtc,"aw",%nobits
 381              		.align	2
 382              		.set	.LANCHOR0,. + 0
 385              	hrtc:
 386 0000 00000000 		.space	32
 386      00000000 
 386      00000000 
 386      00000000 
 386      00000000 
ARM GAS  C:\Users\NICHOL~2\AppData\Local\Temp\ccNGQVCL.s 			page 16


 387              		.section	.bss.htim6,"aw",%nobits
 388              		.align	2
 389              		.set	.LANCHOR1,. + 0
 392              	htim6:
 393 0000 00000000 		.space	76
 393      00000000 
 393      00000000 
 393      00000000 
 393      00000000 
 394              		.text
 395              	.Letext0:
 396              		.file 3 "c:\\program files (x86)\\gnu arm embedded toolchain\\10 2021.10\\arm-none-eabi\\include\\
 397              		.file 4 "c:\\program files (x86)\\gnu arm embedded toolchain\\10 2021.10\\arm-none-eabi\\include\\
 398              		.file 5 "Drivers/CMSIS/Device/ST/STM32F3xx/Include/stm32f303x8.h"
 399              		.file 6 "Drivers/STM32F3xx_HAL_Driver/Inc/stm32f3xx_hal_def.h"
 400              		.file 7 "Drivers/STM32F3xx_HAL_Driver/Inc/stm32f3xx_hal_rcc.h"
 401              		.file 8 "Drivers/STM32F3xx_HAL_Driver/Inc/stm32f3xx_hal_rcc_ex.h"
 402              		.file 9 "Drivers/STM32F3xx_HAL_Driver/Inc/stm32f3xx_hal_dma.h"
 403              		.file 10 "Drivers/STM32F3xx_HAL_Driver/Inc/stm32f3xx_hal_rtc.h"
 404              		.file 11 "Drivers/STM32F3xx_HAL_Driver/Inc/stm32f3xx_hal_tim.h"
 405              		.file 12 "Drivers/STM32F3xx_HAL_Driver/Inc/stm32f3xx_hal_tim_ex.h"
 406              		.file 13 "Drivers/STM32F3xx_HAL_Driver/Inc/stm32f3xx_hal.h"
 407              		.file 14 "<built-in>"
ARM GAS  C:\Users\NICHOL~2\AppData\Local\Temp\ccNGQVCL.s 			page 17

